(dp0
S'0134'
p1
cnumpy.core.multiarray
scalar
p2
(cnumpy
dtype
p3
(S'f8'
p4
I0
I1
tp5
Rp6
(I3
S'<'
p7
NNNI-1
I-1
I0
tp8
bS'\xfb\xe0\x7f\xe1\x0ft\x08@'
p9
tp10
Rp11
sS'2302'
p12
g2
(g6
S'\x0c7\xdbS~Y\x08@'
p13
tp14
Rp15
sS'0433'
p16
g2
(g6
S'\x0c7\xdbS~Y\x08@'
p17
tp18
Rp19
sS'0135'
p20
g2
(g6
S'\xfb\xe0\x7f\xe1\x0ft\x08@'
p21
tp22
Rp23
sS'1200'
p24
g2
(g6
S'\x0c7\xdbS~Y\x08@'
p25
tp26
Rp27
sS'1140'
p28
g2
(g6
S'\x0c7\xdbS~Y\x08@'
p29
tp30
Rp31
sS'4042'
p32
g2
(g6
S'\x0c7\xdbS~Y\x08@'
p33
tp34
Rp35
sS'4024'
p36
g2
(g6
S'\x0c7\xdbS~Y\x08@'
p37
tp38
Rp39
sS'4025'
p40
g2
(g6
S'\xfb\xe0\x7f\xe1\x0ft\x08@'
p41
tp42
Rp43
sS'4022'
p44
g2
(g6
S'\x0c7\xdbS~Y\x08@'
p45
tp46
Rp47
sS'4023'
p48
g2
(g6
S'\xfb\xe0\x7f\xe1\x0ft\x08@'
p49
tp50
Rp51
sS'4020'
p52
g2
(g6
S'\x0c7\xdbS~Y\x08@'
p53
tp54
Rp55
sS'4021'
p56
g2
(g6
S'\xfb\xe0\x7f\xe1\x0ft\x08@'
p57
tp58
Rp59
sS'0545'
p60
g2
(g6
S'\x0c7\xdbS~Y\x08@'
p61
tp62
Rp63
sS'0544'
p64
g2
(g6
S'\x0c7\xdbS~Y\x08@'
p65
tp66
Rp67
sS'3555'
p68
g2
(g6
S"q\xf3\xe4\x14'\x8c\x05@"
p69
tp70
Rp71
sS'3554'
p72
g2
(g6
S'\x0c7\xdbS~Y\x08@'
p73
tp74
Rp75
sS'0541'
p76
g2
(g6
S'\xfb\xe0\x7f\xe1\x0ft\x08@'
p77
tp78
Rp79
sS'0540'
p80
g2
(g6
S'\x0c7\xdbS~Y\x08@'
p81
tp82
Rp83
sS'0543'
p84
g2
(g6
S'\xfb\xe0\x7f\xe1\x0ft\x08@'
p85
tp86
Rp87
sS'0542'
p88
g2
(g6
S'\xfb\xe0\x7f\xe1\x0ft\x08@'
p89
tp90
Rp91
sS'3250'
p92
g2
(g6
S'\xfb\xe0\x7f\xe1\x0ft\x08@'
p93
tp94
Rp95
sS'3251'
p96
g2
(g6
S'\xfb\xe0\x7f\xe1\x0ft\x08@'
p97
tp98
Rp99
sS'0424'
p100
g2
(g6
S'\x0c7\xdbS~Y\x08@'
p101
tp102
Rp103
sS'0425'
p104
g2
(g6
S'\xfb\xe0\x7f\xe1\x0ft\x08@'
p105
tp106
Rp107
sS'0422'
p108
g2
(g6
S'\x0c7\xdbS~Y\x08@'
p109
tp110
Rp111
sS'0423'
p112
g2
(g6
S'\xfb\xe0\x7f\xe1\x0ft\x08@'
p113
tp114
Rp115
sS'0420'
p116
g2
(g6
S'\x0c7\xdbS~Y\x08@'
p117
tp118
Rp119
sS'0421'
p120
g2
(g6
S'\xfb\xe0\x7f\xe1\x0ft\x08@'
p121
tp122
Rp123
sS'1252'
p124
g2
(g6
S'\x0c7\xdbS~Y\x08@'
p125
tp126
Rp127
sS'3231'
p128
g2
(g6
S'\x0c7\xdbS~Y\x08@'
p129
tp130
Rp131
sS'5412'
p132
g2
(g6
S'\xfb\xe0\x7f\xe1\x0ft\x08@'
p133
tp134
Rp135
sS'5532'
p136
g2
(g6
S'\x0c7\xdbS~Y\x08@'
p137
tp138
Rp139
sS'1202'
p140
g2
(g6
S'\x0c7\xdbS~Y\x08@'
p141
tp142
Rp143
sS'1250'
p144
g2
(g6
S'\xfb\xe0\x7f\xe1\x0ft\x08@'
p145
tp146
Rp147
sS'1251'
p148
g2
(g6
S'\x0c7\xdbS~Y\x08@'
p149
tp150
Rp151
sS'3333'
p152
g2
(g6
S'\x1aM\xf5\x0e\x97\xf9\xf7?'
p153
tp154
Rp155
sS'3332'
p156
g2
(g6
S"q\xf3\xe4\x14'\x8c\x05@"
p157
tp158
Rp159
sS'3331'
p160
g2
(g6
S"q\xf3\xe4\x14'\x8c\x05@"
p161
tp162
Rp163
sS'3330'
p164
g2
(g6
S"q\xf3\xe4\x14'\x8c\x05@"
p165
tp166
Rp167
sS'3335'
p168
g2
(g6
S"q\xf3\xe4\x14'\x8c\x05@"
p169
tp170
Rp171
sS'3334'
p172
g2
(g6
S"q\xf3\xe4\x14'\x8c\x05@"
p173
tp174
Rp175
sS'3420'
p176
g2
(g6
S'\xfb\xe0\x7f\xe1\x0ft\x08@'
p177
tp178
Rp179
sS'1524'
p180
g2
(g6
S'\xfb\xe0\x7f\xe1\x0ft\x08@'
p181
tp182
Rp183
sS'1542'
p184
g2
(g6
S'\xfb\xe0\x7f\xe1\x0ft\x08@'
p185
tp186
Rp187
sS'5300'
p188
g2
(g6
S'\x0c7\xdbS~Y\x08@'
p189
tp190
Rp191
sS'5301'
p192
g2
(g6
S'\xfb\xe0\x7f\xe1\x0ft\x08@'
p193
tp194
Rp195
sS'2314'
p196
g2
(g6
S'\xfb\xe0\x7f\xe1\x0ft\x08@'
p197
tp198
Rp199
sS'2315'
p200
g2
(g6
S'\xfb\xe0\x7f\xe1\x0ft\x08@'
p201
tp202
Rp203
sS'2312'
p204
g2
(g6
S'\x0c7\xdbS~Y\x08@'
p205
tp206
Rp207
sS'2313'
p208
g2
(g6
S'\x0c7\xdbS~Y\x08@'
p209
tp210
Rp211
sS'2310'
p212
g2
(g6
S'\xfb\xe0\x7f\xe1\x0ft\x08@'
p213
tp214
Rp215
sS'2311'
p216
g2
(g6
S'\x0c7\xdbS~Y\x08@'
p217
tp218
Rp219
sS'0332'
p220
g2
(g6
S'\x0c7\xdbS~Y\x08@'
p221
tp222
Rp223
sS'0333'
p224
g2
(g6
S"q\xf3\xe4\x14'\x8c\x05@"
p225
tp226
Rp227
sS'0330'
p228
g2
(g6
S'U!\xf8r\xb0\x14\x07@'
p229
tp230
Rp231
sS'0331'
p232
g2
(g6
S'\x0c7\xdbS~Y\x08@'
p233
tp234
Rp235
sS'1543'
p236
g2
(g6
S'\xfb\xe0\x7f\xe1\x0ft\x08@'
p237
tp238
Rp239
sS'0334'
p240
g2
(g6
S'\x0c7\xdbS~Y\x08@'
p241
tp242
Rp243
sS'0335'
p244
g2
(g6
S'\x0c7\xdbS~Y\x08@'
p245
tp246
Rp247
sS'0112'
p248
g2
(g6
S'\x0c7\xdbS~Y\x08@'
p249
tp250
Rp251
sS'0113'
p252
g2
(g6
S'\x0c7\xdbS~Y\x08@'
p253
tp254
Rp255
sS'0110'
p256
g2
(g6
S'U!\xf8r\xb0\x14\x07@'
p257
tp258
Rp259
sS'0111'
p260
g2
(g6
S"q\xf3\xe4\x14'\x8c\x05@"
p261
tp262
Rp263
sS'0114'
p264
g2
(g6
S'\x0c7\xdbS~Y\x08@'
p265
tp266
Rp267
sS'0115'
p268
g2
(g6
S'\x0c7\xdbS~Y\x08@'
p269
tp270
Rp271
sS'0053'
p272
g2
(g6
S'\x0c7\xdbS~Y\x08@'
p273
tp274
Rp275
sS'0052'
p276
g2
(g6
S'\x0c7\xdbS~Y\x08@'
p277
tp278
Rp279
sS'0051'
p280
g2
(g6
S'\x0c7\xdbS~Y\x08@'
p281
tp282
Rp283
sS'0050'
p284
g2
(g6
S"q\xf3\xe4\x14'\x8c\x05@"
p285
tp286
Rp287
sS'1124'
p288
g2
(g6
S'\x0c7\xdbS~Y\x08@'
p289
tp290
Rp291
sS'1125'
p292
g2
(g6
S'\x0c7\xdbS~Y\x08@'
p293
tp294
Rp295
sS'0055'
p296
g2
(g6
S'U!\xf8r\xb0\x14\x07@'
p297
tp298
Rp299
sS'0054'
p300
g2
(g6
S'\x0c7\xdbS~Y\x08@'
p301
tp302
Rp303
sS'3140'
p304
g2
(g6
S'\xfb\xe0\x7f\xe1\x0ft\x08@'
p305
tp306
Rp307
sS'3141'
p308
g2
(g6
S'\x0c7\xdbS~Y\x08@'
p309
tp310
Rp311
sS'3142'
p312
g2
(g6
S'\xfb\xe0\x7f\xe1\x0ft\x08@'
p313
tp314
Rp315
sS'3143'
p316
g2
(g6
S'\x0c7\xdbS~Y\x08@'
p317
tp318
Rp319
sS'3144'
p320
g2
(g6
S'\x0c7\xdbS~Y\x08@'
p321
tp322
Rp323
sS'3145'
p324
g2
(g6
S'\xfb\xe0\x7f\xe1\x0ft\x08@'
p325
tp326
Rp327
sS'4554'
p328
g2
(g6
S'U!\xf8r\xb0\x14\x07@'
p329
tp330
Rp331
sS'4555'
p332
g2
(g6
S"q\xf3\xe4\x14'\x8c\x05@"
p333
tp334
Rp335
sS'4552'
p336
g2
(g6
S'\x0c7\xdbS~Y\x08@'
p337
tp338
Rp339
sS'4553'
p340
g2
(g6
S'\x0c7\xdbS~Y\x08@'
p341
tp342
Rp343
sS'4550'
p344
g2
(g6
S'\x0c7\xdbS~Y\x08@'
p345
tp346
Rp347
sS'4551'
p348
g2
(g6
S'\x0c7\xdbS~Y\x08@'
p349
tp350
Rp351
sS'2543'
p352
g2
(g6
S'\xfb\xe0\x7f\xe1\x0ft\x08@'
p353
tp354
Rp355
sS'2542'
p356
g2
(g6
S'\x0c7\xdbS~Y\x08@'
p357
tp358
Rp359
sS'2541'
p360
g2
(g6
S'\xfb\xe0\x7f\xe1\x0ft\x08@'
p361
tp362
Rp363
sS'2540'
p364
g2
(g6
S'\xfb\xe0\x7f\xe1\x0ft\x08@'
p365
tp366
Rp367
sS'5410'
p368
g2
(g6
S'\xfb\xe0\x7f\xe1\x0ft\x08@'
p369
tp370
Rp371
sS'5411'
p372
g2
(g6
S'\x0c7\xdbS~Y\x08@'
p373
tp374
Rp375
sS'2545'
p376
g2
(g6
S'\x0c7\xdbS~Y\x08@'
p377
tp378
Rp379
sS'5413'
p380
g2
(g6
S'\xfb\xe0\x7f\xe1\x0ft\x08@'
p381
tp382
Rp383
sS'3025'
p384
g2
(g6
S'\xfb\xe0\x7f\xe1\x0ft\x08@'
p385
tp386
Rp387
sS'3024'
p388
g2
(g6
S'\xfb\xe0\x7f\xe1\x0ft\x08@'
p389
tp390
Rp391
sS'3023'
p392
g2
(g6
S'\x0c7\xdbS~Y\x08@'
p393
tp394
Rp395
sS'3022'
p396
g2
(g6
S'\x0c7\xdbS~Y\x08@'
p397
tp398
Rp399
sS'3021'
p400
g2
(g6
S'\xfb\xe0\x7f\xe1\x0ft\x08@'
p401
tp402
Rp403
sS'3020'
p404
g2
(g6
S'\x0c7\xdbS~Y\x08@'
p405
tp406
Rp407
sS'1133'
p408
g2
(g6
S'U!\xf8r\xb0\x14\x07@'
p409
tp410
Rp411
sS'0204'
p412
g2
(g6
S'\x0c7\xdbS~Y\x08@'
p413
tp414
Rp415
sS'0205'
p416
g2
(g6
S'\x0c7\xdbS~Y\x08@'
p417
tp418
Rp419
sS'0202'
p420
g2
(g6
S'U!\xf8r\xb0\x14\x07@'
p421
tp422
Rp423
sS'0203'
p424
g2
(g6
S'\x0c7\xdbS~Y\x08@'
p425
tp426
Rp427
sS'0200'
p428
g2
(g6
S"q\xf3\xe4\x14'\x8c\x05@"
p429
tp430
Rp431
sS'0201'
p432
g2
(g6
S'\x0c7\xdbS~Y\x08@'
p433
tp434
Rp435
sS'1014'
p436
g2
(g6
S'\x0c7\xdbS~Y\x08@'
p437
tp438
Rp439
sS'1015'
p440
g2
(g6
S'\x0c7\xdbS~Y\x08@'
p441
tp442
Rp443
sS'1401'
p444
g2
(g6
S'\x0c7\xdbS~Y\x08@'
p445
tp446
Rp447
sS'1400'
p448
g2
(g6
S'\x0c7\xdbS~Y\x08@'
p449
tp450
Rp451
sS'1010'
p452
g2
(g6
S'U!\xf8r\xb0\x14\x07@'
p453
tp454
Rp455
sS'1011'
p456
g2
(g6
S"q\xf3\xe4\x14'\x8c\x05@"
p457
tp458
Rp459
sS'1012'
p460
g2
(g6
S'\x0c7\xdbS~Y\x08@'
p461
tp462
Rp463
sS'1013'
p464
g2
(g6
S'\x0c7\xdbS~Y\x08@'
p465
tp466
Rp467
sS'1234'
p468
g2
(g6
S'\xfb\xe0\x7f\xe1\x0ft\x08@'
p469
tp470
Rp471
sS'1235'
p472
g2
(g6
S'\xfb\xe0\x7f\xe1\x0ft\x08@'
p473
tp474
Rp475
sS'2440'
p476
g2
(g6
S'\x0c7\xdbS~Y\x08@'
p477
tp478
Rp479
sS'2441'
p480
g2
(g6
S'\x0c7\xdbS~Y\x08@'
p481
tp482
Rp483
sS'1230'
p484
g2
(g6
S'\xfb\xe0\x7f\xe1\x0ft\x08@'
p485
tp486
Rp487
sS'1231'
p488
g2
(g6
S'\x0c7\xdbS~Y\x08@'
p489
tp490
Rp491
sS'1232'
p492
g2
(g6
S'\x0c7\xdbS~Y\x08@'
p493
tp494
Rp495
sS'1233'
p496
g2
(g6
S'\x0c7\xdbS~Y\x08@'
p497
tp498
Rp499
sS'1335'
p500
g2
(g6
S'\x0c7\xdbS~Y\x08@'
p501
tp502
Rp503
sS'1334'
p504
g2
(g6
S'\x0c7\xdbS~Y\x08@'
p505
tp506
Rp507
sS'1101'
p508
g2
(g6
S"q\xf3\xe4\x14'\x8c\x05@"
p509
tp510
Rp511
sS'1331'
p512
g2
(g6
S'U!\xf8r\xb0\x14\x07@'
p513
tp514
Rp515
sS'1330'
p516
g2
(g6
S'\x0c7\xdbS~Y\x08@'
p517
tp518
Rp519
sS'1333'
p520
g2
(g6
S"q\xf3\xe4\x14'\x8c\x05@"
p521
tp522
Rp523
sS'1332'
p524
g2
(g6
S'\x0c7\xdbS~Y\x08@'
p525
tp526
Rp527
sS'2514'
p528
g2
(g6
S'\xfb\xe0\x7f\xe1\x0ft\x08@'
p529
tp530
Rp531
sS'0103'
p532
g2
(g6
S'\x0c7\xdbS~Y\x08@'
p533
tp534
Rp535
sS'2233'
p536
g2
(g6
S'U!\xf8r\xb0\x14\x07@'
p537
tp538
Rp539
sS'2515'
p540
g2
(g6
S'\x0c7\xdbS~Y\x08@'
p541
tp542
Rp543
sS'4354'
p544
g2
(g6
S'\x0c7\xdbS~Y\x08@'
p545
tp546
Rp547
sS'3553'
p548
g2
(g6
S'U!\xf8r\xb0\x14\x07@'
p549
tp550
Rp551
sS'0102'
p552
g2
(g6
S'\x0c7\xdbS~Y\x08@'
p553
tp554
Rp555
sS'4350'
p556
g2
(g6
S'\xfb\xe0\x7f\xe1\x0ft\x08@'
p557
tp558
Rp559
sS'4351'
p560
g2
(g6
S'\xfb\xe0\x7f\xe1\x0ft\x08@'
p561
tp562
Rp563
sS'4352'
p564
g2
(g6
S'\xfb\xe0\x7f\xe1\x0ft\x08@'
p565
tp566
Rp567
sS'3552'
p568
g2
(g6
S'\x0c7\xdbS~Y\x08@'
p569
tp570
Rp571
sS'2044'
p572
g2
(g6
S'\x0c7\xdbS~Y\x08@'
p573
tp574
Rp575
sS'2045'
p576
g2
(g6
S'\xfb\xe0\x7f\xe1\x0ft\x08@'
p577
tp578
Rp579
sS'2042'
p580
g2
(g6
S'\x0c7\xdbS~Y\x08@'
p581
tp582
Rp583
sS'2043'
p584
g2
(g6
S'\xfb\xe0\x7f\xe1\x0ft\x08@'
p585
tp586
Rp587
sS'2040'
p588
g2
(g6
S'\x0c7\xdbS~Y\x08@'
p589
tp590
Rp591
sS'2041'
p592
g2
(g6
S'\xfb\xe0\x7f\xe1\x0ft\x08@'
p593
tp594
Rp595
sS'4422'
p596
g2
(g6
S'U!\xf8r\xb0\x14\x07@'
p597
tp598
Rp599
sS'4423'
p600
g2
(g6
S'\x0c7\xdbS~Y\x08@'
p601
tp602
Rp603
sS'4420'
p604
g2
(g6
S'\x0c7\xdbS~Y\x08@'
p605
tp606
Rp607
sS'1541'
p608
g2
(g6
S'\x0c7\xdbS~Y\x08@'
p609
tp610
Rp611
sS'4424'
p612
g2
(g6
S"q\xf3\xe4\x14'\x8c\x05@"
p613
tp614
Rp615
sS'1510'
p616
g2
(g6
S'\x0c7\xdbS~Y\x08@'
p617
tp618
Rp619
sS'1241'
p620
g2
(g6
S'\x0c7\xdbS~Y\x08@'
p621
tp622
Rp623
sS'1240'
p624
g2
(g6
S'\xfb\xe0\x7f\xe1\x0ft\x08@'
p625
tp626
Rp627
sS'1243'
p628
g2
(g6
S'\xfb\xe0\x7f\xe1\x0ft\x08@'
p629
tp630
Rp631
sS'1242'
p632
g2
(g6
S'\x0c7\xdbS~Y\x08@'
p633
tp634
Rp635
sS'1245'
p636
g2
(g6
S'\xfb\xe0\x7f\xe1\x0ft\x08@'
p637
tp638
Rp639
sS'1244'
p640
g2
(g6
S'\x0c7\xdbS~Y\x08@'
p641
tp642
Rp643
sS'1531'
p644
g2
(g6
S'\x0c7\xdbS~Y\x08@'
p645
tp646
Rp647
sS'1530'
p648
g2
(g6
S'\xfb\xe0\x7f\xe1\x0ft\x08@'
p649
tp650
Rp651
sS'2513'
p652
g2
(g6
S'\xfb\xe0\x7f\xe1\x0ft\x08@'
p653
tp654
Rp655
sS'3252'
p656
g2
(g6
S'\x0c7\xdbS~Y\x08@'
p657
tp658
Rp659
sS'3253'
p660
g2
(g6
S'\x0c7\xdbS~Y\x08@'
p661
tp662
Rp663
sS'3254'
p664
g2
(g6
S'\xfb\xe0\x7f\xe1\x0ft\x08@'
p665
tp666
Rp667
sS'2201'
p668
g2
(g6
S'\x0c7\xdbS~Y\x08@'
p669
tp670
Rp671
sS'3255'
p672
g2
(g6
S'\x0c7\xdbS~Y\x08@'
p673
tp674
Rp675
sS'4101'
p676
g2
(g6
S'\x0c7\xdbS~Y\x08@'
p677
tp678
Rp679
sS'4100'
p680
g2
(g6
S'\x0c7\xdbS~Y\x08@'
p681
tp682
Rp683
sS'4103'
p684
g2
(g6
S'\xfb\xe0\x7f\xe1\x0ft\x08@'
p685
tp686
Rp687
sS'4102'
p688
g2
(g6
S'\xfb\xe0\x7f\xe1\x0ft\x08@'
p689
tp690
Rp691
sS'4105'
p692
g2
(g6
S'\xfb\xe0\x7f\xe1\x0ft\x08@'
p693
tp694
Rp695
sS'4104'
p696
g2
(g6
S'\x0c7\xdbS~Y\x08@'
p697
tp698
Rp699
sS'5135'
p700
g2
(g6
S'\x0c7\xdbS~Y\x08@'
p701
tp702
Rp703
sS'4142'
p704
g2
(g6
S'\x0c7\xdbS~Y\x08@'
p705
tp706
Rp707
sS'5133'
p708
g2
(g6
S'\x0c7\xdbS~Y\x08@'
p709
tp710
Rp711
sS'5132'
p712
g2
(g6
S'\xfb\xe0\x7f\xe1\x0ft\x08@'
p713
tp714
Rp715
sS'5131'
p716
g2
(g6
S'\x0c7\xdbS~Y\x08@'
p717
tp718
Rp719
sS'5130'
p720
g2
(g6
S'\xfb\xe0\x7f\xe1\x0ft\x08@'
p721
tp722
Rp723
sS'3452'
p724
g2
(g6
S'\xfb\xe0\x7f\xe1\x0ft\x08@'
p725
tp726
Rp727
sS'3453'
p728
g2
(g6
S'\x0c7\xdbS~Y\x08@'
p729
tp730
Rp731
sS'3450'
p732
g2
(g6
S'\xfb\xe0\x7f\xe1\x0ft\x08@'
p733
tp734
Rp735
sS'3451'
p736
g2
(g6
S'\xfb\xe0\x7f\xe1\x0ft\x08@'
p737
tp738
Rp739
sS'3454'
p740
g2
(g6
S'\x0c7\xdbS~Y\x08@'
p741
tp742
Rp743
sS'3455'
p744
g2
(g6
S'\x0c7\xdbS~Y\x08@'
p745
tp746
Rp747
sS'0501'
p748
g2
(g6
S'\x0c7\xdbS~Y\x08@'
p749
tp750
Rp751
sS'0500'
p752
g2
(g6
S"q\xf3\xe4\x14'\x8c\x05@"
p753
tp754
Rp755
sS'0503'
p756
g2
(g6
S'\x0c7\xdbS~Y\x08@'
p757
tp758
Rp759
sS'0502'
p760
g2
(g6
S'\x0c7\xdbS~Y\x08@'
p761
tp762
Rp763
sS'0505'
p764
g2
(g6
S'U!\xf8r\xb0\x14\x07@'
p765
tp766
Rp767
sS'0504'
p768
g2
(g6
S'\x0c7\xdbS~Y\x08@'
p769
tp770
Rp771
sS'3515'
p772
g2
(g6
S'\x0c7\xdbS~Y\x08@'
p773
tp774
Rp775
sS'3514'
p776
g2
(g6
S'\xfb\xe0\x7f\xe1\x0ft\x08@'
p777
tp778
Rp779
sS'3104'
p780
g2
(g6
S'\xfb\xe0\x7f\xe1\x0ft\x08@'
p781
tp782
Rp783
sS'1021'
p784
g2
(g6
S'\x0c7\xdbS~Y\x08@'
p785
tp786
Rp787
sS'0345'
p788
g2
(g6
S'\xfb\xe0\x7f\xe1\x0ft\x08@'
p789
tp790
Rp791
sS'5024'
p792
g2
(g6
S'\xfb\xe0\x7f\xe1\x0ft\x08@'
p793
tp794
Rp795
sS'2203'
p796
g2
(g6
S'\x0c7\xdbS~Y\x08@'
p797
tp798
Rp799
sS'1321'
p800
g2
(g6
S'\x0c7\xdbS~Y\x08@'
p801
tp802
Rp803
sS'1434'
p804
g2
(g6
S'\x0c7\xdbS~Y\x08@'
p805
tp806
Rp807
sS'3242'
p808
g2
(g6
S'\x0c7\xdbS~Y\x08@'
p809
tp810
Rp811
sS'1214'
p812
g2
(g6
S'\x0c7\xdbS~Y\x08@'
p813
tp814
Rp815
sS'1435'
p816
g2
(g6
S'\xfb\xe0\x7f\xe1\x0ft\x08@'
p817
tp818
Rp819
sS'2232'
p820
g2
(g6
S"q\xf3\xe4\x14'\x8c\x05@"
p821
tp822
Rp823
sS'1020'
p824
g2
(g6
S'\x0c7\xdbS~Y\x08@'
p825
tp826
Rp827
sS'1432'
p828
g2
(g6
S'\xfb\xe0\x7f\xe1\x0ft\x08@'
p829
tp830
Rp831
sS'1153'
p832
g2
(g6
S'\x0c7\xdbS~Y\x08@'
p833
tp834
Rp835
sS'1433'
p836
g2
(g6
S'\x0c7\xdbS~Y\x08@'
p837
tp838
Rp839
sS'3205'
p840
g2
(g6
S'\xfb\xe0\x7f\xe1\x0ft\x08@'
p841
tp842
Rp843
sS'3204'
p844
g2
(g6
S'\xfb\xe0\x7f\xe1\x0ft\x08@'
p845
tp846
Rp847
sS'3203'
p848
g2
(g6
S'\x0c7\xdbS~Y\x08@'
p849
tp850
Rp851
sS'3202'
p852
g2
(g6
S'\x0c7\xdbS~Y\x08@'
p853
tp854
Rp855
sS'3201'
p856
g2
(g6
S'\xfb\xe0\x7f\xe1\x0ft\x08@'
p857
tp858
Rp859
sS'3200'
p860
g2
(g6
S'\x0c7\xdbS~Y\x08@'
p861
tp862
Rp863
sS'5223'
p864
g2
(g6
S'\x0c7\xdbS~Y\x08@'
p865
tp866
Rp867
sS'5222'
p868
g2
(g6
S"q\xf3\xe4\x14'\x8c\x05@"
p869
tp870
Rp871
sS'5221'
p872
g2
(g6
S'\x0c7\xdbS~Y\x08@'
p873
tp874
Rp875
sS'5220'
p876
g2
(g6
S'\x0c7\xdbS~Y\x08@'
p877
tp878
Rp879
sS'5225'
p880
g2
(g6
S'U!\xf8r\xb0\x14\x07@'
p881
tp882
Rp883
sS'5224'
p884
g2
(g6
S'\x0c7\xdbS~Y\x08@'
p885
tp886
Rp887
sS'1023'
p888
g2
(g6
S'\xfb\xe0\x7f\xe1\x0ft\x08@'
p889
tp890
Rp891
sS'0514'
p892
g2
(g6
S'\xfb\xe0\x7f\xe1\x0ft\x08@'
p893
tp894
Rp895
sS'2130'
p896
g2
(g6
S'\xfb\xe0\x7f\xe1\x0ft\x08@'
p897
tp898
Rp899
sS'0515'
p900
g2
(g6
S'\x0c7\xdbS~Y\x08@'
p901
tp902
Rp903
sS'2205'
p904
g2
(g6
S'\x0c7\xdbS~Y\x08@'
p905
tp906
Rp907
sS'0255'
p908
g2
(g6
S'\x0c7\xdbS~Y\x08@'
p909
tp910
Rp911
sS'0254'
p912
g2
(g6
S'\xfb\xe0\x7f\xe1\x0ft\x08@'
p913
tp914
Rp915
sS'0251'
p916
g2
(g6
S'\xfb\xe0\x7f\xe1\x0ft\x08@'
p917
tp918
Rp919
sS'0250'
p920
g2
(g6
S'\x0c7\xdbS~Y\x08@'
p921
tp922
Rp923
sS'0253'
p924
g2
(g6
S'\xfb\xe0\x7f\xe1\x0ft\x08@'
p925
tp926
Rp927
sS'0252'
p928
g2
(g6
S'\x0c7\xdbS~Y\x08@'
p929
tp930
Rp931
sS'5311'
p932
g2
(g6
S'\x0c7\xdbS~Y\x08@'
p933
tp934
Rp935
sS'2212'
p936
g2
(g6
S"q\xf3\xe4\x14'\x8c\x05@"
p937
tp938
Rp939
sS'1022'
p940
g2
(g6
S'\x0c7\xdbS~Y\x08@'
p941
tp942
Rp943
sS'0511'
p944
g2
(g6
S'\x0c7\xdbS~Y\x08@'
p945
tp946
Rp947
sS'1050'
p948
g2
(g6
S'\x0c7\xdbS~Y\x08@'
p949
tp950
Rp951
sS'1051'
p952
g2
(g6
S'\x0c7\xdbS~Y\x08@'
p953
tp954
Rp955
sS'1052'
p956
g2
(g6
S'\xfb\xe0\x7f\xe1\x0ft\x08@'
p957
tp958
Rp959
sS'1053'
p960
g2
(g6
S'\xfb\xe0\x7f\xe1\x0ft\x08@'
p961
tp962
Rp963
sS'1054'
p964
g2
(g6
S'\xfb\xe0\x7f\xe1\x0ft\x08@'
p965
tp966
Rp967
sS'5352'
p968
g2
(g6
S'\x0c7\xdbS~Y\x08@'
p969
tp970
Rp971
sS'5351'
p972
g2
(g6
S'\x0c7\xdbS~Y\x08@'
p973
tp974
Rp975
sS'2342'
p976
g2
(g6
S'\x0c7\xdbS~Y\x08@'
p977
tp978
Rp979
sS'3342'
p980
g2
(g6
S'\x0c7\xdbS~Y\x08@'
p981
tp982
Rp983
sS'3343'
p984
g2
(g6
S"q\xf3\xe4\x14'\x8c\x05@"
p985
tp986
Rp987
sS'2224'
p988
g2
(g6
S"q\xf3\xe4\x14'\x8c\x05@"
p989
tp990
Rp991
sS'3341'
p992
g2
(g6
S'\x0c7\xdbS~Y\x08@'
p993
tp994
Rp995
sS'2222'
p996
g2
(g6
S'\x1aM\xf5\x0e\x97\xf9\xf7?'
p997
tp998
Rp999
sS'2223'
p1000
g2
(g6
S"q\xf3\xe4\x14'\x8c\x05@"
p1001
tp1002
Rp1003
sS'3344'
p1004
g2
(g6
S'U!\xf8r\xb0\x14\x07@'
p1005
tp1006
Rp1007
sS'3345'
p1008
g2
(g6
S'\x0c7\xdbS~Y\x08@'
p1009
tp1010
Rp1011
sS'0022'
p1012
g2
(g6
S'U!\xf8r\xb0\x14\x07@'
p1013
tp1014
Rp1015
sS'0023'
p1016
g2
(g6
S'\x0c7\xdbS~Y\x08@'
p1017
tp1018
Rp1019
sS'0020'
p1020
g2
(g6
S"q\xf3\xe4\x14'\x8c\x05@"
p1021
tp1022
Rp1023
sS'0021'
p1024
g2
(g6
S'\x0c7\xdbS~Y\x08@'
p1025
tp1026
Rp1027
sS'4314'
p1028
g2
(g6
S'\x0c7\xdbS~Y\x08@'
p1029
tp1030
Rp1031
sS'4315'
p1032
g2
(g6
S'\xfb\xe0\x7f\xe1\x0ft\x08@'
p1033
tp1034
Rp1035
sS'0024'
p1036
g2
(g6
S'\x0c7\xdbS~Y\x08@'
p1037
tp1038
Rp1039
sS'0025'
p1040
g2
(g6
S'\x0c7\xdbS~Y\x08@'
p1041
tp1042
Rp1043
sS'4251'
p1044
g2
(g6
S'\xfb\xe0\x7f\xe1\x0ft\x08@'
p1045
tp1046
Rp1047
sS'4250'
p1048
g2
(g6
S'\xfb\xe0\x7f\xe1\x0ft\x08@'
p1049
tp1050
Rp1051
sS'4253'
p1052
g2
(g6
S'\xfb\xe0\x7f\xe1\x0ft\x08@'
p1053
tp1054
Rp1055
sS'4252'
p1056
g2
(g6
S'\x0c7\xdbS~Y\x08@'
p1057
tp1058
Rp1059
sS'4255'
p1060
g2
(g6
S'\x0c7\xdbS~Y\x08@'
p1061
tp1062
Rp1063
sS'4254'
p1064
g2
(g6
S'\x0c7\xdbS~Y\x08@'
p1065
tp1066
Rp1067
sS'4505'
p1068
g2
(g6
S'\x0c7\xdbS~Y\x08@'
p1069
tp1070
Rp1071
sS'4504'
p1072
g2
(g6
S'\x0c7\xdbS~Y\x08@'
p1073
tp1074
Rp1075
sS'5531'
p1076
g2
(g6
S'\x0c7\xdbS~Y\x08@'
p1077
tp1078
Rp1079
sS'5354'
p1080
g2
(g6
S'\x0c7\xdbS~Y\x08@'
p1081
tp1082
Rp1083
sS'4501'
p1084
g2
(g6
S'\xfb\xe0\x7f\xe1\x0ft\x08@'
p1085
tp1086
Rp1087
sS'4500'
p1088
g2
(g6
S'\x0c7\xdbS~Y\x08@'
p1089
tp1090
Rp1091
sS'4503'
p1092
g2
(g6
S'\xfb\xe0\x7f\xe1\x0ft\x08@'
p1093
tp1094
Rp1095
sS'4502'
p1096
g2
(g6
S'\xfb\xe0\x7f\xe1\x0ft\x08@'
p1097
tp1098
Rp1099
sS'2341'
p1100
g2
(g6
S'\xfb\xe0\x7f\xe1\x0ft\x08@'
p1101
tp1102
Rp1103
sS'5004'
p1104
g2
(g6
S'\x0c7\xdbS~Y\x08@'
p1105
tp1106
Rp1107
sS'1055'
p1108
g2
(g6
S'\x0c7\xdbS~Y\x08@'
p1109
tp1110
Rp1111
sS'2121'
p1112
g2
(g6
S'U!\xf8r\xb0\x14\x07@'
p1113
tp1114
Rp1115
sS'2120'
p1116
g2
(g6
S'\x0c7\xdbS~Y\x08@'
p1117
tp1118
Rp1119
sS'2123'
p1120
g2
(g6
S'\x0c7\xdbS~Y\x08@'
p1121
tp1122
Rp1123
sS'2122'
p1124
g2
(g6
S"q\xf3\xe4\x14'\x8c\x05@"
p1125
tp1126
Rp1127
sS'2125'
p1128
g2
(g6
S'\x0c7\xdbS~Y\x08@'
p1129
tp1130
Rp1131
sS'2343'
p1132
g2
(g6
S'\x0c7\xdbS~Y\x08@'
p1133
tp1134
Rp1135
sS'3102'
p1136
g2
(g6
S'\xfb\xe0\x7f\xe1\x0ft\x08@'
p1137
tp1138
Rp1139
sS'3115'
p1140
g2
(g6
S'\x0c7\xdbS~Y\x08@'
p1141
tp1142
Rp1143
sS'3114'
p1144
g2
(g6
S'\x0c7\xdbS~Y\x08@'
p1145
tp1146
Rp1147
sS'3113'
p1148
g2
(g6
S'U!\xf8r\xb0\x14\x07@'
p1149
tp1150
Rp1151
sS'3112'
p1152
g2
(g6
S'\x0c7\xdbS~Y\x08@'
p1153
tp1154
Rp1155
sS'3111'
p1156
g2
(g6
S"q\xf3\xe4\x14'\x8c\x05@"
p1157
tp1158
Rp1159
sS'3110'
p1160
g2
(g6
S'\x0c7\xdbS~Y\x08@'
p1161
tp1162
Rp1163
sS'5450'
p1164
g2
(g6
S'\x0c7\xdbS~Y\x08@'
p1165
tp1166
Rp1167
sS'0154'
p1168
g2
(g6
S'\xfb\xe0\x7f\xe1\x0ft\x08@'
p1169
tp1170
Rp1171
sS'0155'
p1172
g2
(g6
S'\x0c7\xdbS~Y\x08@'
p1173
tp1174
Rp1175
sS'0152'
p1176
g2
(g6
S'\xfb\xe0\x7f\xe1\x0ft\x08@'
p1177
tp1178
Rp1179
sS'0153'
p1180
g2
(g6
S'\xfb\xe0\x7f\xe1\x0ft\x08@'
p1181
tp1182
Rp1183
sS'0150'
p1184
g2
(g6
S'\x0c7\xdbS~Y\x08@'
p1185
tp1186
Rp1187
sS'0151'
p1188
g2
(g6
S'\x0c7\xdbS~Y\x08@'
p1189
tp1190
Rp1191
sS'2532'
p1192
g2
(g6
S'\x0c7\xdbS~Y\x08@'
p1193
tp1194
Rp1195
sS'2533'
p1196
g2
(g6
S'\x0c7\xdbS~Y\x08@'
p1197
tp1198
Rp1199
sS'2530'
p1200
g2
(g6
S'\xfb\xe0\x7f\xe1\x0ft\x08@'
p1201
tp1202
Rp1203
sS'2531'
p1204
g2
(g6
S'\xfb\xe0\x7f\xe1\x0ft\x08@'
p1205
tp1206
Rp1207
sS'3340'
p1208
g2
(g6
S'\x0c7\xdbS~Y\x08@'
p1209
tp1210
Rp1211
sS'2534'
p1212
g2
(g6
S'\xfb\xe0\x7f\xe1\x0ft\x08@'
p1213
tp1214
Rp1215
sS'2535'
p1216
g2
(g6
S'\x0c7\xdbS~Y\x08@'
p1217
tp1218
Rp1219
sS'1304'
p1220
g2
(g6
S'\xfb\xe0\x7f\xe1\x0ft\x08@'
p1221
tp1222
Rp1223
sS'1305'
p1224
g2
(g6
S'\xfb\xe0\x7f\xe1\x0ft\x08@'
p1225
tp1226
Rp1227
sS'2225'
p1228
g2
(g6
S"q\xf3\xe4\x14'\x8c\x05@"
p1229
tp1230
Rp1231
sS'1300'
p1232
g2
(g6
S'\x0c7\xdbS~Y\x08@'
p1233
tp1234
Rp1235
sS'1301'
p1236
g2
(g6
S'\x0c7\xdbS~Y\x08@'
p1237
tp1238
Rp1239
sS'1302'
p1240
g2
(g6
S'\xfb\xe0\x7f\xe1\x0ft\x08@'
p1241
tp1242
Rp1243
sS'1303'
p1244
g2
(g6
S'\x0c7\xdbS~Y\x08@'
p1245
tp1246
Rp1247
sS'5454'
p1248
g2
(g6
S'U!\xf8r\xb0\x14\x07@'
p1249
tp1250
Rp1251
sS'0242'
p1252
g2
(g6
S'\x0c7\xdbS~Y\x08@'
p1253
tp1254
Rp1255
sS'1512'
p1256
g2
(g6
S'\x0c7\xdbS~Y\x08@'
p1257
tp1258
Rp1259
sS'3414'
p1260
g2
(g6
S'\x0c7\xdbS~Y\x08@'
p1261
tp1262
Rp1263
sS'3415'
p1264
g2
(g6
S'\xfb\xe0\x7f\xe1\x0ft\x08@'
p1265
tp1266
Rp1267
sS'3412'
p1268
g2
(g6
S'\xfb\xe0\x7f\xe1\x0ft\x08@'
p1269
tp1270
Rp1271
sS'2220'
p1272
g2
(g6
S"q\xf3\xe4\x14'\x8c\x05@"
p1273
tp1274
Rp1275
sS'3410'
p1276
g2
(g6
S'\xfb\xe0\x7f\xe1\x0ft\x08@'
p1277
tp1278
Rp1279
sS'3411'
p1280
g2
(g6
S'\x0c7\xdbS~Y\x08@'
p1281
tp1282
Rp1283
sS'4224'
p1284
g2
(g6
S'U!\xf8r\xb0\x14\x07@'
p1285
tp1286
Rp1287
sS'4225'
p1288
g2
(g6
S'\x0c7\xdbS~Y\x08@'
p1289
tp1290
Rp1291
sS'2221'
p1292
g2
(g6
S"q\xf3\xe4\x14'\x8c\x05@"
p1293
tp1294
Rp1295
sS'4220'
p1296
g2
(g6
S'\x0c7\xdbS~Y\x08@'
p1297
tp1298
Rp1299
sS'4221'
p1300
g2
(g6
S'\x0c7\xdbS~Y\x08@'
p1301
tp1302
Rp1303
sS'4222'
p1304
g2
(g6
S"q\xf3\xe4\x14'\x8c\x05@"
p1305
tp1306
Rp1307
sS'4223'
p1308
g2
(g6
S'\x0c7\xdbS~Y\x08@'
p1309
tp1310
Rp1311
sS'2443'
p1312
g2
(g6
S'\x0c7\xdbS~Y\x08@'
p1313
tp1314
Rp1315
sS'1024'
p1316
g2
(g6
S'\xfb\xe0\x7f\xe1\x0ft\x08@'
p1317
tp1318
Rp1319
sS'1203'
p1320
g2
(g6
S'\xfb\xe0\x7f\xe1\x0ft\x08@'
p1321
tp1322
Rp1323
sS'2351'
p1324
g2
(g6
S'\xfb\xe0\x7f\xe1\x0ft\x08@'
p1325
tp1326
Rp1327
sS'2154'
p1328
g2
(g6
S'\xfb\xe0\x7f\xe1\x0ft\x08@'
p1329
tp1330
Rp1331
sS'2155'
p1332
g2
(g6
S'\x0c7\xdbS~Y\x08@'
p1333
tp1334
Rp1335
sS'2404'
p1336
g2
(g6
S'\x0c7\xdbS~Y\x08@'
p1337
tp1338
Rp1339
sS'2405'
p1340
g2
(g6
S'\xfb\xe0\x7f\xe1\x0ft\x08@'
p1341
tp1342
Rp1343
sS'2150'
p1344
g2
(g6
S'\xfb\xe0\x7f\xe1\x0ft\x08@'
p1345
tp1346
Rp1347
sS'2151'
p1348
g2
(g6
S'\x0c7\xdbS~Y\x08@'
p1349
tp1350
Rp1351
sS'2152'
p1352
g2
(g6
S'\x0c7\xdbS~Y\x08@'
p1353
tp1354
Rp1355
sS'2153'
p1356
g2
(g6
S'\xfb\xe0\x7f\xe1\x0ft\x08@'
p1357
tp1358
Rp1359
sS'2015'
p1360
g2
(g6
S'\xfb\xe0\x7f\xe1\x0ft\x08@'
p1361
tp1362
Rp1363
sS'2014'
p1364
g2
(g6
S'\xfb\xe0\x7f\xe1\x0ft\x08@'
p1365
tp1366
Rp1367
sS'2011'
p1368
g2
(g6
S'\x0c7\xdbS~Y\x08@'
p1369
tp1370
Rp1371
sS'2010'
p1372
g2
(g6
S'\x0c7\xdbS~Y\x08@'
p1373
tp1374
Rp1375
sS'2013'
p1376
g2
(g6
S'\xfb\xe0\x7f\xe1\x0ft\x08@'
p1377
tp1378
Rp1379
sS'2012'
p1380
g2
(g6
S'\x0c7\xdbS~Y\x08@'
p1381
tp1382
Rp1383
sS'1343'
p1384
g2
(g6
S'\x0c7\xdbS~Y\x08@'
p1385
tp1386
Rp1387
sS'2451'
p1388
g2
(g6
S'\xfb\xe0\x7f\xe1\x0ft\x08@'
p1389
tp1390
Rp1391
sS'2552'
p1392
g2
(g6
S'U!\xf8r\xb0\x14\x07@'
p1393
tp1394
Rp1395
sS'2450'
p1396
g2
(g6
S'\xfb\xe0\x7f\xe1\x0ft\x08@'
p1397
tp1398
Rp1399
sS'4031'
p1400
g2
(g6
S'\xfb\xe0\x7f\xe1\x0ft\x08@'
p1401
tp1402
Rp1403
sS'4030'
p1404
g2
(g6
S'\x0c7\xdbS~Y\x08@'
p1405
tp1406
Rp1407
sS'4033'
p1408
g2
(g6
S'\x0c7\xdbS~Y\x08@'
p1409
tp1410
Rp1411
sS'4032'
p1412
g2
(g6
S'\xfb\xe0\x7f\xe1\x0ft\x08@'
p1413
tp1414
Rp1415
sS'4035'
p1416
g2
(g6
S'\xfb\xe0\x7f\xe1\x0ft\x08@'
p1417
tp1418
Rp1419
sS'4034'
p1420
g2
(g6
S'\x0c7\xdbS~Y\x08@'
p1421
tp1422
Rp1423
sS'2452'
p1424
g2
(g6
S'\x0c7\xdbS~Y\x08@'
p1425
tp1426
Rp1427
sS'0530'
p1428
g2
(g6
S'\x0c7\xdbS~Y\x08@'
p1429
tp1430
Rp1431
sS'0531'
p1432
g2
(g6
S'\xfb\xe0\x7f\xe1\x0ft\x08@'
p1433
tp1434
Rp1435
sS'0532'
p1436
g2
(g6
S'\xfb\xe0\x7f\xe1\x0ft\x08@'
p1437
tp1438
Rp1439
sS'0533'
p1440
g2
(g6
S'\x0c7\xdbS~Y\x08@'
p1441
tp1442
Rp1443
sS'0534'
p1444
g2
(g6
S'\xfb\xe0\x7f\xe1\x0ft\x08@'
p1445
tp1446
Rp1447
sS'0535'
p1448
g2
(g6
S'\x0c7\xdbS~Y\x08@'
p1449
tp1450
Rp1451
sS'0120'
p1452
g2
(g6
S'\x0c7\xdbS~Y\x08@'
p1453
tp1454
Rp1455
sS'0431'
p1456
g2
(g6
S'\xfb\xe0\x7f\xe1\x0ft\x08@'
p1457
tp1458
Rp1459
sS'0430'
p1460
g2
(g6
S'\x0c7\xdbS~Y\x08@'
p1461
tp1462
Rp1463
sS'4132'
p1464
g2
(g6
S'\xfb\xe0\x7f\xe1\x0ft\x08@'
p1465
tp1466
Rp1467
sS'0432'
p1468
g2
(g6
S'\xfb\xe0\x7f\xe1\x0ft\x08@'
p1469
tp1470
Rp1471
sS'0435'
p1472
g2
(g6
S'\xfb\xe0\x7f\xe1\x0ft\x08@'
p1473
tp1474
Rp1475
sS'0434'
p1476
g2
(g6
S'\x0c7\xdbS~Y\x08@'
p1477
tp1478
Rp1479
sS'3245'
p1480
g2
(g6
S'\xfb\xe0\x7f\xe1\x0ft\x08@'
p1481
tp1482
Rp1483
sS'3244'
p1484
g2
(g6
S'\x0c7\xdbS~Y\x08@'
p1485
tp1486
Rp1487
sS'5512'
p1488
g2
(g6
S'\x0c7\xdbS~Y\x08@'
p1489
tp1490
Rp1491
sS'1511'
p1492
g2
(g6
S"q\xf3\xe4\x14'\x8c\x05@"
p1493
tp1494
Rp1495
sS'0241'
p1496
g2
(g6
S'\xfb\xe0\x7f\xe1\x0ft\x08@'
p1497
tp1498
Rp1499
sS'5302'
p1500
g2
(g6
S'\xfb\xe0\x7f\xe1\x0ft\x08@'
p1501
tp1502
Rp1503
sS'1141'
p1504
g2
(g6
S"q\xf3\xe4\x14'\x8c\x05@"
p1505
tp1506
Rp1507
sS'4310'
p1508
g2
(g6
S'\xfb\xe0\x7f\xe1\x0ft\x08@'
p1509
tp1510
Rp1511
sS'5303'
p1512
g2
(g6
S'\x0c7\xdbS~Y\x08@'
p1513
tp1514
Rp1515
sS'0041'
p1516
g2
(g6
S'\x0c7\xdbS~Y\x08@'
p1517
tp1518
Rp1519
sS'4311'
p1520
g2
(g6
S'\x0c7\xdbS~Y\x08@'
p1521
tp1522
Rp1523
sS'5304'
p1524
g2
(g6
S'\xfb\xe0\x7f\xe1\x0ft\x08@'
p1525
tp1526
Rp1527
sS'4312'
p1528
g2
(g6
S'\xfb\xe0\x7f\xe1\x0ft\x08@'
p1529
tp1530
Rp1531
sS'0122'
p1532
g2
(g6
S'\x0c7\xdbS~Y\x08@'
p1533
tp1534
Rp1535
sS'5305'
p1536
g2
(g6
S'\x0c7\xdbS~Y\x08@'
p1537
tp1538
Rp1539
sS'4313'
p1540
g2
(g6
S'\x0c7\xdbS~Y\x08@'
p1541
tp1542
Rp1543
sS'3304'
p1544
g2
(g6
S'\x0c7\xdbS~Y\x08@'
p1545
tp1546
Rp1547
sS'3305'
p1548
g2
(g6
S'\x0c7\xdbS~Y\x08@'
p1549
tp1550
Rp1551
sS'3302'
p1552
g2
(g6
S'\x0c7\xdbS~Y\x08@'
p1553
tp1554
Rp1555
sS'3303'
p1556
g2
(g6
S"q\xf3\xe4\x14'\x8c\x05@"
p1557
tp1558
Rp1559
sS'3300'
p1560
g2
(g6
S'U!\xf8r\xb0\x14\x07@'
p1561
tp1562
Rp1563
sS'3301'
p1564
g2
(g6
S'\x0c7\xdbS~Y\x08@'
p1565
tp1566
Rp1567
sS'0325'
p1568
g2
(g6
S'\xfb\xe0\x7f\xe1\x0ft\x08@'
p1569
tp1570
Rp1571
sS'0324'
p1572
g2
(g6
S'\xfb\xe0\x7f\xe1\x0ft\x08@'
p1573
tp1574
Rp1575
sS'5250'
p1576
g2
(g6
S'\x0c7\xdbS~Y\x08@'
p1577
tp1578
Rp1579
sS'5251'
p1580
g2
(g6
S'\x0c7\xdbS~Y\x08@'
p1581
tp1582
Rp1583
sS'0321'
p1584
g2
(g6
S'\xfb\xe0\x7f\xe1\x0ft\x08@'
p1585
tp1586
Rp1587
sS'0320'
p1588
g2
(g6
S'\x0c7\xdbS~Y\x08@'
p1589
tp1590
Rp1591
sS'5254'
p1592
g2
(g6
S'\x0c7\xdbS~Y\x08@'
p1593
tp1594
Rp1595
sS'0322'
p1596
g2
(g6
S'\x0c7\xdbS~Y\x08@'
p1597
tp1598
Rp1599
sS'2301'
p1600
g2
(g6
S'\xfb\xe0\x7f\xe1\x0ft\x08@'
p1601
tp1602
Rp1603
sS'2300'
p1604
g2
(g6
S'\x0c7\xdbS~Y\x08@'
p1605
tp1606
Rp1607
sS'2303'
p1608
g2
(g6
S'\x0c7\xdbS~Y\x08@'
p1609
tp1610
Rp1611
sS'5310'
p1612
g2
(g6
S'\xfb\xe0\x7f\xe1\x0ft\x08@'
p1613
tp1614
Rp1615
sS'2305'
p1616
g2
(g6
S'\xfb\xe0\x7f\xe1\x0ft\x08@'
p1617
tp1618
Rp1619
sS'2304'
p1620
g2
(g6
S'\xfb\xe0\x7f\xe1\x0ft\x08@'
p1621
tp1622
Rp1623
sS'5315'
p1624
g2
(g6
S'\x0c7\xdbS~Y\x08@'
p1625
tp1626
Rp1627
sS'5314'
p1628
g2
(g6
S'\xfb\xe0\x7f\xe1\x0ft\x08@'
p1629
tp1630
Rp1631
sS'0245'
p1632
g2
(g6
S'\xfb\xe0\x7f\xe1\x0ft\x08@'
p1633
tp1634
Rp1635
sS'2144'
p1636
g2
(g6
S'\x0c7\xdbS~Y\x08@'
p1637
tp1638
Rp1639
sS'1513'
p1640
g2
(g6
S'\x0c7\xdbS~Y\x08@'
p1641
tp1642
Rp1643
sS'0444'
p1644
g2
(g6
S"q\xf3\xe4\x14'\x8c\x05@"
p1645
tp1646
Rp1647
sS'0445'
p1648
g2
(g6
S'\x0c7\xdbS~Y\x08@'
p1649
tp1650
Rp1651
sS'0440'
p1652
g2
(g6
S'U!\xf8r\xb0\x14\x07@'
p1653
tp1654
Rp1655
sS'0441'
p1656
g2
(g6
S'\x0c7\xdbS~Y\x08@'
p1657
tp1658
Rp1659
sS'0442'
p1660
g2
(g6
S'\x0c7\xdbS~Y\x08@'
p1661
tp1662
Rp1663
sS'0443'
p1664
g2
(g6
S'\x0c7\xdbS~Y\x08@'
p1665
tp1666
Rp1667
sS'0343'
p1668
g2
(g6
S'\x0c7\xdbS~Y\x08@'
p1669
tp1670
Rp1671
sS'2453'
p1672
g2
(g6
S'\xfb\xe0\x7f\xe1\x0ft\x08@'
p1673
tp1674
Rp1675
sS'0342'
p1676
g2
(g6
S'\xfb\xe0\x7f\xe1\x0ft\x08@'
p1677
tp1678
Rp1679
sS'0105'
p1680
g2
(g6
S'\x0c7\xdbS~Y\x08@'
p1681
tp1682
Rp1683
sS'0104'
p1684
g2
(g6
S'\x0c7\xdbS~Y\x08@'
p1685
tp1686
Rp1687
sS'1131'
p1688
g2
(g6
S"q\xf3\xe4\x14'\x8c\x05@"
p1689
tp1690
Rp1691
sS'1130'
p1692
g2
(g6
S'\x0c7\xdbS~Y\x08@'
p1693
tp1694
Rp1695
sS'0101'
p1696
g2
(g6
S'U!\xf8r\xb0\x14\x07@'
p1697
tp1698
Rp1699
sS'0100'
p1700
g2
(g6
S"q\xf3\xe4\x14'\x8c\x05@"
p1701
tp1702
Rp1703
sS'1135'
p1704
g2
(g6
S'\x0c7\xdbS~Y\x08@'
p1705
tp1706
Rp1707
sS'1134'
p1708
g2
(g6
S'\x0c7\xdbS~Y\x08@'
p1709
tp1710
Rp1711
sS'3153'
p1712
g2
(g6
S'\x0c7\xdbS~Y\x08@'
p1713
tp1714
Rp1715
sS'3152'
p1716
g2
(g6
S'\xfb\xe0\x7f\xe1\x0ft\x08@'
p1717
tp1718
Rp1719
sS'3151'
p1720
g2
(g6
S'\x0c7\xdbS~Y\x08@'
p1721
tp1722
Rp1723
sS'3150'
p1724
g2
(g6
S'\xfb\xe0\x7f\xe1\x0ft\x08@'
p1725
tp1726
Rp1727
sS'3155'
p1728
g2
(g6
S'\x0c7\xdbS~Y\x08@'
p1729
tp1730
Rp1731
sS'3154'
p1732
g2
(g6
S'\xfb\xe0\x7f\xe1\x0ft\x08@'
p1733
tp1734
Rp1735
sS'4541'
p1736
g2
(g6
S'\x0c7\xdbS~Y\x08@'
p1737
tp1738
Rp1739
sS'4540'
p1740
g2
(g6
S'\x0c7\xdbS~Y\x08@'
p1741
tp1742
Rp1743
sS'4543'
p1744
g2
(g6
S'\x0c7\xdbS~Y\x08@'
p1745
tp1746
Rp1747
sS'4542'
p1748
g2
(g6
S'\x0c7\xdbS~Y\x08@'
p1749
tp1750
Rp1751
sS'4545'
p1752
g2
(g6
S'U!\xf8r\xb0\x14\x07@'
p1753
tp1754
Rp1755
sS'4544'
p1756
g2
(g6
S"q\xf3\xe4\x14'\x8c\x05@"
p1757
tp1758
Rp1759
sS'5533'
p1760
g2
(g6
S'U!\xf8r\xb0\x14\x07@'
p1761
tp1762
Rp1763
sS'5405'
p1764
g2
(g6
S'\x0c7\xdbS~Y\x08@'
p1765
tp1766
Rp1767
sS'5404'
p1768
g2
(g6
S'\x0c7\xdbS~Y\x08@'
p1769
tp1770
Rp1771
sS'5403'
p1772
g2
(g6
S'\xfb\xe0\x7f\xe1\x0ft\x08@'
p1773
tp1774
Rp1775
sS'5402'
p1776
g2
(g6
S'\xfb\xe0\x7f\xe1\x0ft\x08@'
p1777
tp1778
Rp1779
sS'1430'
p1780
g2
(g6
S'\xfb\xe0\x7f\xe1\x0ft\x08@'
p1781
tp1782
Rp1783
sS'5400'
p1784
g2
(g6
S'\x0c7\xdbS~Y\x08@'
p1785
tp1786
Rp1787
sS'3012'
p1788
g2
(g6
S'\xfb\xe0\x7f\xe1\x0ft\x08@'
p1789
tp1790
Rp1791
sS'3013'
p1792
g2
(g6
S'\x0c7\xdbS~Y\x08@'
p1793
tp1794
Rp1795
sS'3010'
p1796
g2
(g6
S'\x0c7\xdbS~Y\x08@'
p1797
tp1798
Rp1799
sS'3011'
p1800
g2
(g6
S'\x0c7\xdbS~Y\x08@'
p1801
tp1802
Rp1803
sS'3014'
p1804
g2
(g6
S'\xfb\xe0\x7f\xe1\x0ft\x08@'
p1805
tp1806
Rp1807
sS'3015'
p1808
g2
(g6
S'\xfb\xe0\x7f\xe1\x0ft\x08@'
p1809
tp1810
Rp1811
sS'0211'
p1812
g2
(g6
S'\x0c7\xdbS~Y\x08@'
p1813
tp1814
Rp1815
sS'0210'
p1816
g2
(g6
S'\x0c7\xdbS~Y\x08@'
p1817
tp1818
Rp1819
sS'0213'
p1820
g2
(g6
S'\xfb\xe0\x7f\xe1\x0ft\x08@'
p1821
tp1822
Rp1823
sS'0212'
p1824
g2
(g6
S'\x0c7\xdbS~Y\x08@'
p1825
tp1826
Rp1827
sS'0215'
p1828
g2
(g6
S'\xfb\xe0\x7f\xe1\x0ft\x08@'
p1829
tp1830
Rp1831
sS'0214'
p1832
g2
(g6
S'\xfb\xe0\x7f\xe1\x0ft\x08@'
p1833
tp1834
Rp1835
sS'4535'
p1836
g2
(g6
S'\x0c7\xdbS~Y\x08@'
p1837
tp1838
Rp1839
sS'1005'
p1840
g2
(g6
S'\x0c7\xdbS~Y\x08@'
p1841
tp1842
Rp1843
sS'1004'
p1844
g2
(g6
S'\x0c7\xdbS~Y\x08@'
p1845
tp1846
Rp1847
sS'1003'
p1848
g2
(g6
S'\x0c7\xdbS~Y\x08@'
p1849
tp1850
Rp1851
sS'1002'
p1852
g2
(g6
S'\x0c7\xdbS~Y\x08@'
p1853
tp1854
Rp1855
sS'1001'
p1856
g2
(g6
S'U!\xf8r\xb0\x14\x07@'
p1857
tp1858
Rp1859
sS'1000'
p1860
g2
(g6
S"q\xf3\xe4\x14'\x8c\x05@"
p1861
tp1862
Rp1863
sS'1225'
p1864
g2
(g6
S'\x0c7\xdbS~Y\x08@'
p1865
tp1866
Rp1867
sS'1224'
p1868
g2
(g6
S'\x0c7\xdbS~Y\x08@'
p1869
tp1870
Rp1871
sS'1223'
p1872
g2
(g6
S'\x0c7\xdbS~Y\x08@'
p1873
tp1874
Rp1875
sS'5535'
p1876
g2
(g6
S"q\xf3\xe4\x14'\x8c\x05@"
p1877
tp1878
Rp1879
sS'1221'
p1880
g2
(g6
S'U!\xf8r\xb0\x14\x07@'
p1881
tp1882
Rp1883
sS'1220'
p1884
g2
(g6
S'\x0c7\xdbS~Y\x08@'
p1885
tp1886
Rp1887
sS'2455'
p1888
g2
(g6
S'\x0c7\xdbS~Y\x08@'
p1889
tp1890
Rp1891
sS'2454'
p1892
g2
(g6
S'\x0c7\xdbS~Y\x08@'
p1893
tp1894
Rp1895
sS'1342'
p1896
g2
(g6
S'\xfb\xe0\x7f\xe1\x0ft\x08@'
p1897
tp1898
Rp1899
sS'5534'
p1900
g2
(g6
S'\x0c7\xdbS~Y\x08@'
p1901
tp1902
Rp1903
sS'5032'
p1904
g2
(g6
S'\xfb\xe0\x7f\xe1\x0ft\x08@'
p1905
tp1906
Rp1907
sS'5033'
p1908
g2
(g6
S'\x0c7\xdbS~Y\x08@'
p1909
tp1910
Rp1911
sS'5030'
p1912
g2
(g6
S'\x0c7\xdbS~Y\x08@'
p1913
tp1914
Rp1915
sS'5031'
p1916
g2
(g6
S'\xfb\xe0\x7f\xe1\x0ft\x08@'
p1917
tp1918
Rp1919
sS'4435'
p1920
g2
(g6
S'\x0c7\xdbS~Y\x08@'
p1921
tp1922
Rp1923
sS'4434'
p1924
g2
(g6
S"q\xf3\xe4\x14'\x8c\x05@"
p1925
tp1926
Rp1927
sS'5013'
p1928
g2
(g6
S'\xfb\xe0\x7f\xe1\x0ft\x08@'
p1929
tp1930
Rp1931
sS'4431'
p1932
g2
(g6
S'\x0c7\xdbS~Y\x08@'
p1933
tp1934
Rp1935
sS'4430'
p1936
g2
(g6
S'\x0c7\xdbS~Y\x08@'
p1937
tp1938
Rp1939
sS'4433'
p1940
g2
(g6
S'U!\xf8r\xb0\x14\x07@'
p1941
tp1942
Rp1943
sS'4432'
p1944
g2
(g6
S'\x0c7\xdbS~Y\x08@'
p1945
tp1946
Rp1947
sS'4345'
p1948
g2
(g6
S'\x0c7\xdbS~Y\x08@'
p1949
tp1950
Rp1951
sS'4344'
p1952
g2
(g6
S"q\xf3\xe4\x14'\x8c\x05@"
p1953
tp1954
Rp1955
sS'4343'
p1956
g2
(g6
S'U!\xf8r\xb0\x14\x07@'
p1957
tp1958
Rp1959
sS'4342'
p1960
g2
(g6
S'\x0c7\xdbS~Y\x08@'
p1961
tp1962
Rp1963
sS'4341'
p1964
g2
(g6
S'\x0c7\xdbS~Y\x08@'
p1965
tp1966
Rp1967
sS'4340'
p1968
g2
(g6
S'\x0c7\xdbS~Y\x08@'
p1969
tp1970
Rp1971
sS'2051'
p1972
g2
(g6
S'\xfb\xe0\x7f\xe1\x0ft\x08@'
p1973
tp1974
Rp1975
sS'2050'
p1976
g2
(g6
S'\x0c7\xdbS~Y\x08@'
p1977
tp1978
Rp1979
sS'2053'
p1980
g2
(g6
S'\xfb\xe0\x7f\xe1\x0ft\x08@'
p1981
tp1982
Rp1983
sS'2052'
p1984
g2
(g6
S'\x0c7\xdbS~Y\x08@'
p1985
tp1986
Rp1987
sS'2055'
p1988
g2
(g6
S'\x0c7\xdbS~Y\x08@'
p1989
tp1990
Rp1991
sS'2054'
p1992
g2
(g6
S'\xfb\xe0\x7f\xe1\x0ft\x08@'
p1993
tp1994
Rp1995
sS'4534'
p1996
g2
(g6
S'\x0c7\xdbS~Y\x08@'
p1997
tp1998
Rp1999
sS'5543'
p2000
g2
(g6
S'\x0c7\xdbS~Y\x08@'
p2001
tp2002
Rp2003
sS'5540'
p2004
g2
(g6
S'\x0c7\xdbS~Y\x08@'
p2005
tp2006
Rp2007
sS'5541'
p2008
g2
(g6
S'\x0c7\xdbS~Y\x08@'
p2009
tp2010
Rp2011
sS'4530'
p2012
g2
(g6
S'\xfb\xe0\x7f\xe1\x0ft\x08@'
p2013
tp2014
Rp2015
sS'4531'
p2016
g2
(g6
S'\xfb\xe0\x7f\xe1\x0ft\x08@'
p2017
tp2018
Rp2019
sS'5544'
p2020
g2
(g6
S'U!\xf8r\xb0\x14\x07@'
p2021
tp2022
Rp2023
sS'4533'
p2024
g2
(g6
S'\x0c7\xdbS~Y\x08@'
p2025
tp2026
Rp2027
sS'1502'
p2028
g2
(g6
S'\xfb\xe0\x7f\xe1\x0ft\x08@'
p2029
tp2030
Rp2031
sS'1503'
p2032
g2
(g6
S'\xfb\xe0\x7f\xe1\x0ft\x08@'
p2033
tp2034
Rp2035
sS'1500'
p2036
g2
(g6
S'\x0c7\xdbS~Y\x08@'
p2037
tp2038
Rp2039
sS'1501'
p2040
g2
(g6
S'\x0c7\xdbS~Y\x08@'
p2041
tp2042
Rp2043
sS'1504'
p2044
g2
(g6
S'\xfb\xe0\x7f\xe1\x0ft\x08@'
p2045
tp2046
Rp2047
sS'1121'
p2048
g2
(g6
S"q\xf3\xe4\x14'\x8c\x05@"
p2049
tp2050
Rp2051
sS'2110'
p2052
g2
(g6
S'\x0c7\xdbS~Y\x08@'
p2053
tp2054
Rp2055
sS'2111'
p2056
g2
(g6
S"q\xf3\xe4\x14'\x8c\x05@"
p2057
tp2058
Rp2059
sS'2112'
p2060
g2
(g6
S'U!\xf8r\xb0\x14\x07@'
p2061
tp2062
Rp2063
sS'2113'
p2064
g2
(g6
S'\x0c7\xdbS~Y\x08@'
p2065
tp2066
Rp2067
sS'2114'
p2068
g2
(g6
S'\x0c7\xdbS~Y\x08@'
p2069
tp2070
Rp2071
sS'1122'
p2072
g2
(g6
S'U!\xf8r\xb0\x14\x07@'
p2073
tp2074
Rp2075
sS'4145'
p2076
g2
(g6
S'\x0c7\xdbS~Y\x08@'
p2077
tp2078
Rp2079
sS'4152'
p2080
g2
(g6
S'\xfb\xe0\x7f\xe1\x0ft\x08@'
p2081
tp2082
Rp2083
sS'1123'
p2084
g2
(g6
S'\x0c7\xdbS~Y\x08@'
p2085
tp2086
Rp2087
sS'2255'
p2088
g2
(g6
S'U!\xf8r\xb0\x14\x07@'
p2089
tp2090
Rp2091
sS'4153'
p2092
g2
(g6
S'\xfb\xe0\x7f\xe1\x0ft\x08@'
p2093
tp2094
Rp2095
sS'4325'
p2096
g2
(g6
S'\xfb\xe0\x7f\xe1\x0ft\x08@'
p2097
tp2098
Rp2099
sS'1505'
p2100
g2
(g6
S'\x0c7\xdbS~Y\x08@'
p2101
tp2102
Rp2103
sS'4215'
p2104
g2
(g6
S'\xfb\xe0\x7f\xe1\x0ft\x08@'
p2105
tp2106
Rp2107
sS'0411'
p2108
g2
(g6
S'\x0c7\xdbS~Y\x08@'
p2109
tp2110
Rp2111
sS'0005'
p2112
g2
(g6
S"q\xf3\xe4\x14'\x8c\x05@"
p2113
tp2114
Rp2115
sS'4324'
p2116
g2
(g6
S'\x0c7\xdbS~Y\x08@'
p2117
tp2118
Rp2119
sS'1415'
p2120
g2
(g6
S'\x0c7\xdbS~Y\x08@'
p2121
tp2122
Rp2123
sS'3524'
p2124
g2
(g6
S'\xfb\xe0\x7f\xe1\x0ft\x08@'
p2125
tp2126
Rp2127
sS'3525'
p2128
g2
(g6
S'\x0c7\xdbS~Y\x08@'
p2129
tp2130
Rp2131
sS'3522'
p2132
g2
(g6
S'\x0c7\xdbS~Y\x08@'
p2133
tp2134
Rp2135
sS'3523'
p2136
g2
(g6
S'\x0c7\xdbS~Y\x08@'
p2137
tp2138
Rp2139
sS'3520'
p2140
g2
(g6
S'\xfb\xe0\x7f\xe1\x0ft\x08@'
p2141
tp2142
Rp2143
sS'3521'
p2144
g2
(g6
S'\xfb\xe0\x7f\xe1\x0ft\x08@'
p2145
tp2146
Rp2147
sS'5102'
p2148
g2
(g6
S'\xfb\xe0\x7f\xe1\x0ft\x08@'
p2149
tp2150
Rp2151
sS'5103'
p2152
g2
(g6
S'\xfb\xe0\x7f\xe1\x0ft\x08@'
p2153
tp2154
Rp2155
sS'5100'
p2156
g2
(g6
S'\x0c7\xdbS~Y\x08@'
p2157
tp2158
Rp2159
sS'5101'
p2160
g2
(g6
S'\x0c7\xdbS~Y\x08@'
p2161
tp2162
Rp2163
sS'5104'
p2164
g2
(g6
S'\xfb\xe0\x7f\xe1\x0ft\x08@'
p2165
tp2166
Rp2167
sS'2124'
p2168
g2
(g6
S'\x0c7\xdbS~Y\x08@'
p2169
tp2170
Rp2171
sS'2001'
p2172
g2
(g6
S'\x0c7\xdbS~Y\x08@'
p2173
tp2174
Rp2175
sS'1311'
p2176
g2
(g6
S"q\xf3\xe4\x14'\x8c\x05@"
p2177
tp2178
Rp2179
sS'4154'
p2180
g2
(g6
S'\x0c7\xdbS~Y\x08@'
p2181
tp2182
Rp2183
sS'3445'
p2184
g2
(g6
S'\x0c7\xdbS~Y\x08@'
p2185
tp2186
Rp2187
sS'3444'
p2188
g2
(g6
S"q\xf3\xe4\x14'\x8c\x05@"
p2189
tp2190
Rp2191
sS'4214'
p2192
g2
(g6
S'\x0c7\xdbS~Y\x08@'
p2193
tp2194
Rp2195
sS'0414'
p2196
g2
(g6
S'\x0c7\xdbS~Y\x08@'
p2197
tp2198
Rp2199
sS'3441'
p2200
g2
(g6
S'\x0c7\xdbS~Y\x08@'
p2201
tp2202
Rp2203
sS'3440'
p2204
g2
(g6
S'\x0c7\xdbS~Y\x08@'
p2205
tp2206
Rp2207
sS'3443'
p2208
g2
(g6
S'U!\xf8r\xb0\x14\x07@'
p2209
tp2210
Rp2211
sS'2115'
p2212
g2
(g6
S'\x0c7\xdbS~Y\x08@'
p2213
tp2214
Rp2215
sS'2024'
p2216
g2
(g6
S'\x0c7\xdbS~Y\x08@'
p2217
tp2218
Rp2219
sS'2025'
p2220
g2
(g6
S'\x0c7\xdbS~Y\x08@'
p2221
tp2222
Rp2223
sS'2020'
p2224
g2
(g6
S'U!\xf8r\xb0\x14\x07@'
p2225
tp2226
Rp2227
sS'2021'
p2228
g2
(g6
S'\x0c7\xdbS~Y\x08@'
p2229
tp2230
Rp2231
sS'2022'
p2232
g2
(g6
S"q\xf3\xe4\x14'\x8c\x05@"
p2233
tp2234
Rp2235
sS'2023'
p2236
g2
(g6
S'\x0c7\xdbS~Y\x08@'
p2237
tp2238
Rp2239
sS'5010'
p2240
g2
(g6
S'\x0c7\xdbS~Y\x08@'
p2241
tp2242
Rp2243
sS'4131'
p2244
g2
(g6
S'\x0c7\xdbS~Y\x08@'
p2245
tp2246
Rp2247
sS'2253'
p2248
g2
(g6
S'\x0c7\xdbS~Y\x08@'
p2249
tp2250
Rp2251
sS'0243'
p2252
g2
(g6
S'\xfb\xe0\x7f\xe1\x0ft\x08@'
p2253
tp2254
Rp2255
sS'2442'
p2256
g2
(g6
S'U!\xf8r\xb0\x14\x07@'
p2257
tp2258
Rp2259
sS'1540'
p2260
g2
(g6
S'\xfb\xe0\x7f\xe1\x0ft\x08@'
p2261
tp2262
Rp2263
sS'5214'
p2264
g2
(g6
S'\xfb\xe0\x7f\xe1\x0ft\x08@'
p2265
tp2266
Rp2267
sS'5215'
p2268
g2
(g6
S'\x0c7\xdbS~Y\x08@'
p2269
tp2270
Rp2271
sS'5212'
p2272
g2
(g6
S'\x0c7\xdbS~Y\x08@'
p2273
tp2274
Rp2275
sS'5213'
p2276
g2
(g6
S'\xfb\xe0\x7f\xe1\x0ft\x08@'
p2277
tp2278
Rp2279
sS'5210'
p2280
g2
(g6
S'\xfb\xe0\x7f\xe1\x0ft\x08@'
p2281
tp2282
Rp2283
sS'5211'
p2284
g2
(g6
S'\x0c7\xdbS~Y\x08@'
p2285
tp2286
Rp2287
sS'5011'
p2288
g2
(g6
S'\x0c7\xdbS~Y\x08@'
p2289
tp2290
Rp2291
sS'3222'
p2292
g2
(g6
S"q\xf3\xe4\x14'\x8c\x05@"
p2293
tp2294
Rp2295
sS'0400'
p2296
g2
(g6
S"q\xf3\xe4\x14'\x8c\x05@"
p2297
tp2298
Rp2299
sS'0401'
p2300
g2
(g6
S'\x0c7\xdbS~Y\x08@'
p2301
tp2302
Rp2303
sS'0402'
p2304
g2
(g6
S'\x0c7\xdbS~Y\x08@'
p2305
tp2306
Rp2307
sS'0403'
p2308
g2
(g6
S'\x0c7\xdbS~Y\x08@'
p2309
tp2310
Rp2311
sS'0404'
p2312
g2
(g6
S'U!\xf8r\xb0\x14\x07@'
p2313
tp2314
Rp2315
sS'0405'
p2316
g2
(g6
S'\x0c7\xdbS~Y\x08@'
p2317
tp2318
Rp2319
sS'3234'
p2320
g2
(g6
S'\x0c7\xdbS~Y\x08@'
p2321
tp2322
Rp2323
sS'3235'
p2324
g2
(g6
S'\x0c7\xdbS~Y\x08@'
p2325
tp2326
Rp2327
sS'4000'
p2328
g2
(g6
S"q\xf3\xe4\x14'\x8c\x05@"
p2329
tp2330
Rp2331
sS'4001'
p2332
g2
(g6
S'\x0c7\xdbS~Y\x08@'
p2333
tp2334
Rp2335
sS'4002'
p2336
g2
(g6
S'\x0c7\xdbS~Y\x08@'
p2337
tp2338
Rp2339
sS'4003'
p2340
g2
(g6
S'\x0c7\xdbS~Y\x08@'
p2341
tp2342
Rp2343
sS'4004'
p2344
g2
(g6
S'U!\xf8r\xb0\x14\x07@'
p2345
tp2346
Rp2347
sS'4005'
p2348
g2
(g6
S'\x0c7\xdbS~Y\x08@'
p2349
tp2350
Rp2351
sS'1025'
p2352
g2
(g6
S'\xfb\xe0\x7f\xe1\x0ft\x08@'
p2353
tp2354
Rp2355
sS'0413'
p2356
g2
(g6
S'\xfb\xe0\x7f\xe1\x0ft\x08@'
p2357
tp2358
Rp2359
sS'2445'
p2360
g2
(g6
S'\x0c7\xdbS~Y\x08@'
p2361
tp2362
Rp2363
sS'4141'
p2364
g2
(g6
S'U!\xf8r\xb0\x14\x07@'
p2365
tp2366
Rp2367
sS'2204'
p2368
g2
(g6
S'\x0c7\xdbS~Y\x08@'
p2369
tp2370
Rp2371
sS'5414'
p2372
g2
(g6
S'\x0c7\xdbS~Y\x08@'
p2373
tp2374
Rp2375
sS'5415'
p2376
g2
(g6
S'\x0c7\xdbS~Y\x08@'
p2377
tp2378
Rp2379
sS'0220'
p2380
g2
(g6
S'U!\xf8r\xb0\x14\x07@'
p2381
tp2382
Rp2383
sS'0221'
p2384
g2
(g6
S'\x0c7\xdbS~Y\x08@'
p2385
tp2386
Rp2387
sS'0222'
p2388
g2
(g6
S"q\xf3\xe4\x14'\x8c\x05@"
p2389
tp2390
Rp2391
sS'0223'
p2392
g2
(g6
S'\x0c7\xdbS~Y\x08@'
p2393
tp2394
Rp2395
sS'0224'
p2396
g2
(g6
S'\x0c7\xdbS~Y\x08@'
p2397
tp2398
Rp2399
sS'0225'
p2400
g2
(g6
S'\x0c7\xdbS~Y\x08@'
p2401
tp2402
Rp2403
sS'1340'
p2404
g2
(g6
S'\xfb\xe0\x7f\xe1\x0ft\x08@'
p2405
tp2406
Rp2407
sS'3355'
p2408
g2
(g6
S'U!\xf8r\xb0\x14\x07@'
p2409
tp2410
Rp2411
sS'3354'
p2412
g2
(g6
S'\x0c7\xdbS~Y\x08@'
p2413
tp2414
Rp2415
sS'0412'
p2416
g2
(g6
S'\xfb\xe0\x7f\xe1\x0ft\x08@'
p2417
tp2418
Rp2419
sS'3351'
p2420
g2
(g6
S'\x0c7\xdbS~Y\x08@'
p2421
tp2422
Rp2423
sS'3350'
p2424
g2
(g6
S'\x0c7\xdbS~Y\x08@'
p2425
tp2426
Rp2427
sS'3353'
p2428
g2
(g6
S"q\xf3\xe4\x14'\x8c\x05@"
p2429
tp2430
Rp2431
sS'3352'
p2432
g2
(g6
S'\x0c7\xdbS~Y\x08@'
p2433
tp2434
Rp2435
sS'4320'
p2436
g2
(g6
S'\xfb\xe0\x7f\xe1\x0ft\x08@'
p2437
tp2438
Rp2439
sS'3054'
p2440
g2
(g6
S'\xfb\xe0\x7f\xe1\x0ft\x08@'
p2441
tp2442
Rp2443
sS'3055'
p2444
g2
(g6
S'\x0c7\xdbS~Y\x08@'
p2445
tp2446
Rp2447
sS'3052'
p2448
g2
(g6
S'\xfb\xe0\x7f\xe1\x0ft\x08@'
p2449
tp2450
Rp2451
sS'3053'
p2452
g2
(g6
S'\x0c7\xdbS~Y\x08@'
p2453
tp2454
Rp2455
sS'3050'
p2456
g2
(g6
S'\x0c7\xdbS~Y\x08@'
p2457
tp2458
Rp2459
sS'3051'
p2460
g2
(g6
S'\xfb\xe0\x7f\xe1\x0ft\x08@'
p2461
tp2462
Rp2463
sS'2330'
p2464
g2
(g6
S'\x0c7\xdbS~Y\x08@'
p2465
tp2466
Rp2467
sS'2331'
p2468
g2
(g6
S'\x0c7\xdbS~Y\x08@'
p2469
tp2470
Rp2471
sS'1041'
p2472
g2
(g6
S'\x0c7\xdbS~Y\x08@'
p2473
tp2474
Rp2475
sS'1040'
p2476
g2
(g6
S'\x0c7\xdbS~Y\x08@'
p2477
tp2478
Rp2479
sS'2334'
p2480
g2
(g6
S'\x0c7\xdbS~Y\x08@'
p2481
tp2482
Rp2483
sS'2335'
p2484
g2
(g6
S'\x0c7\xdbS~Y\x08@'
p2485
tp2486
Rp2487
sS'1045'
p2488
g2
(g6
S'\xfb\xe0\x7f\xe1\x0ft\x08@'
p2489
tp2490
Rp2491
sS'1044'
p2492
g2
(g6
S'\x0c7\xdbS~Y\x08@'
p2493
tp2494
Rp2495
sS'2231'
p2496
g2
(g6
S'\x0c7\xdbS~Y\x08@'
p2497
tp2498
Rp2499
sS'2230'
p2500
g2
(g6
S'\x0c7\xdbS~Y\x08@'
p2501
tp2502
Rp2503
sS'1132'
p2504
g2
(g6
S'\x0c7\xdbS~Y\x08@'
p2505
tp2506
Rp2507
sS'2544'
p2508
g2
(g6
S'\x0c7\xdbS~Y\x08@'
p2509
tp2510
Rp2511
sS'1341'
p2512
g2
(g6
S'\x0c7\xdbS~Y\x08@'
p2513
tp2514
Rp2515
sS'2234'
p2516
g2
(g6
S'\x0c7\xdbS~Y\x08@'
p2517
tp2518
Rp2519
sS'5445'
p2520
g2
(g6
S'U!\xf8r\xb0\x14\x07@'
p2521
tp2522
Rp2523
sS'5444'
p2524
g2
(g6
S"q\xf3\xe4\x14'\x8c\x05@"
p2525
tp2526
Rp2527
sS'1222'
p2528
g2
(g6
S"q\xf3\xe4\x14'\x8c\x05@"
p2529
tp2530
Rp2531
sS'3423'
p2532
g2
(g6
S'\x0c7\xdbS~Y\x08@'
p2533
tp2534
Rp2535
sS'4323'
p2536
g2
(g6
S'\x0c7\xdbS~Y\x08@'
p2537
tp2538
Rp2539
sS'0314'
p2540
g2
(g6
S'\xfb\xe0\x7f\xe1\x0ft\x08@'
p2541
tp2542
Rp2543
sS'0315'
p2544
g2
(g6
S'\xfb\xe0\x7f\xe1\x0ft\x08@'
p2545
tp2546
Rp2547
sS'0310'
p2548
g2
(g6
S'\x0c7\xdbS~Y\x08@'
p2549
tp2550
Rp2551
sS'0311'
p2552
g2
(g6
S'\x0c7\xdbS~Y\x08@'
p2553
tp2554
Rp2555
sS'0312'
p2556
g2
(g6
S'\xfb\xe0\x7f\xe1\x0ft\x08@'
p2557
tp2558
Rp2559
sS'0313'
p2560
g2
(g6
S'\x0c7\xdbS~Y\x08@'
p2561
tp2562
Rp2563
sS'1142'
p2564
g2
(g6
S'\x0c7\xdbS~Y\x08@'
p2565
tp2566
Rp2567
sS'1143'
p2568
g2
(g6
S'\x0c7\xdbS~Y\x08@'
p2569
tp2570
Rp2571
sS'4301'
p2572
g2
(g6
S'\xfb\xe0\x7f\xe1\x0ft\x08@'
p2573
tp2574
Rp2575
sS'4300'
p2576
g2
(g6
S'\x0c7\xdbS~Y\x08@'
p2577
tp2578
Rp2579
sS'0130'
p2580
g2
(g6
S'\x0c7\xdbS~Y\x08@'
p2581
tp2582
Rp2583
sS'0131'
p2584
g2
(g6
S'\x0c7\xdbS~Y\x08@'
p2585
tp2586
Rp2587
sS'4305'
p2588
g2
(g6
S'\xfb\xe0\x7f\xe1\x0ft\x08@'
p2589
tp2590
Rp2591
sS'1145'
p2592
g2
(g6
S'\x0c7\xdbS~Y\x08@'
p2593
tp2594
Rp2595
sS'0035'
p2596
g2
(g6
S'\x0c7\xdbS~Y\x08@'
p2597
tp2598
Rp2599
sS'0034'
p2600
g2
(g6
S'\x0c7\xdbS~Y\x08@'
p2601
tp2602
Rp2603
sS'0031'
p2604
g2
(g6
S'\x0c7\xdbS~Y\x08@'
p2605
tp2606
Rp2607
sS'0030'
p2608
g2
(g6
S"q\xf3\xe4\x14'\x8c\x05@"
p2609
tp2610
Rp2611
sS'0033'
p2612
g2
(g6
S'U!\xf8r\xb0\x14\x07@'
p2613
tp2614
Rp2615
sS'0032'
p2616
g2
(g6
S'\x0c7\xdbS~Y\x08@'
p2617
tp2618
Rp2619
sS'4322'
p2620
g2
(g6
S'\x0c7\xdbS~Y\x08@'
p2621
tp2622
Rp2623
sS'2402'
p2624
g2
(g6
S'\x0c7\xdbS~Y\x08@'
p2625
tp2626
Rp2627
sS'5504'
p2628
g2
(g6
S'\x0c7\xdbS~Y\x08@'
p2629
tp2630
Rp2631
sS'5505'
p2632
g2
(g6
S"q\xf3\xe4\x14'\x8c\x05@"
p2633
tp2634
Rp2635
sS'5502'
p2636
g2
(g6
S'\x0c7\xdbS~Y\x08@'
p2637
tp2638
Rp2639
sS'5503'
p2640
g2
(g6
S'\x0c7\xdbS~Y\x08@'
p2641
tp2642
Rp2643
sS'4212'
p2644
g2
(g6
S'\x0c7\xdbS~Y\x08@'
p2645
tp2646
Rp2647
sS'5501'
p2648
g2
(g6
S'\x0c7\xdbS~Y\x08@'
p2649
tp2650
Rp2651
sS'2525'
p2652
g2
(g6
S'U!\xf8r\xb0\x14\x07@'
p2653
tp2654
Rp2655
sS'2524'
p2656
g2
(g6
S'\x0c7\xdbS~Y\x08@'
p2657
tp2658
Rp2659
sS'1544'
p2660
g2
(g6
S'\x0c7\xdbS~Y\x08@'
p2661
tp2662
Rp2663
sS'1545'
p2664
g2
(g6
S'\x0c7\xdbS~Y\x08@'
p2665
tp2666
Rp2667
sS'2521'
p2668
g2
(g6
S'\x0c7\xdbS~Y\x08@'
p2669
tp2670
Rp2671
sS'2520'
p2672
g2
(g6
S'\x0c7\xdbS~Y\x08@'
p2673
tp2674
Rp2675
sS'2523'
p2676
g2
(g6
S'\x0c7\xdbS~Y\x08@'
p2677
tp2678
Rp2679
sS'2522'
p2680
g2
(g6
S"q\xf3\xe4\x14'\x8c\x05@"
p2681
tp2682
Rp2683
sS'3122'
p2684
g2
(g6
S'\x0c7\xdbS~Y\x08@'
p2685
tp2686
Rp2687
sS'3123'
p2688
g2
(g6
S'\x0c7\xdbS~Y\x08@'
p2689
tp2690
Rp2691
sS'3120'
p2692
g2
(g6
S'\xfb\xe0\x7f\xe1\x0ft\x08@'
p2693
tp2694
Rp2695
sS'3121'
p2696
g2
(g6
S'\x0c7\xdbS~Y\x08@'
p2697
tp2698
Rp2699
sS'3124'
p2700
g2
(g6
S'\xfb\xe0\x7f\xe1\x0ft\x08@'
p2701
tp2702
Rp2703
sS'3125'
p2704
g2
(g6
S'\xfb\xe0\x7f\xe1\x0ft\x08@'
p2705
tp2706
Rp2707
sS'0141'
p2708
g2
(g6
S'\x0c7\xdbS~Y\x08@'
p2709
tp2710
Rp2711
sS'0140'
p2712
g2
(g6
S'\x0c7\xdbS~Y\x08@'
p2713
tp2714
Rp2715
sS'0143'
p2716
g2
(g6
S'\xfb\xe0\x7f\xe1\x0ft\x08@'
p2717
tp2718
Rp2719
sS'0142'
p2720
g2
(g6
S'\xfb\xe0\x7f\xe1\x0ft\x08@'
p2721
tp2722
Rp2723
sS'0145'
p2724
g2
(g6
S'\xfb\xe0\x7f\xe1\x0ft\x08@'
p2725
tp2726
Rp2727
sS'0144'
p2728
g2
(g6
S'\x0c7\xdbS~Y\x08@'
p2729
tp2730
Rp2731
sS'0232'
p2732
g2
(g6
S'\x0c7\xdbS~Y\x08@'
p2733
tp2734
Rp2735
sS'2244'
p2736
g2
(g6
S'U!\xf8r\xb0\x14\x07@'
p2737
tp2738
Rp2739
sS'2245'
p2740
g2
(g6
S'\x0c7\xdbS~Y\x08@'
p2741
tp2742
Rp2743
sS'5105'
p2744
g2
(g6
S'\x0c7\xdbS~Y\x08@'
p2745
tp2746
Rp2747
sS'2240'
p2748
g2
(g6
S'\x0c7\xdbS~Y\x08@'
p2749
tp2750
Rp2751
sS'2241'
p2752
g2
(g6
S'\x0c7\xdbS~Y\x08@'
p2753
tp2754
Rp2755
sS'2242'
p2756
g2
(g6
S"q\xf3\xe4\x14'\x8c\x05@"
p2757
tp2758
Rp2759
sS'2243'
p2760
g2
(g6
S'\x0c7\xdbS~Y\x08@'
p2761
tp2762
Rp2763
sS'2444'
p2764
g2
(g6
S"q\xf3\xe4\x14'\x8c\x05@"
p2765
tp2766
Rp2767
sS'5344'
p2768
g2
(g6
S'\x0c7\xdbS~Y\x08@'
p2769
tp2770
Rp2771
sS'1315'
p2772
g2
(g6
S'\x0c7\xdbS~Y\x08@'
p2773
tp2774
Rp2775
sS'1314'
p2776
g2
(g6
S'\x0c7\xdbS~Y\x08@'
p2777
tp2778
Rp2779
sS'1313'
p2780
g2
(g6
S'U!\xf8r\xb0\x14\x07@'
p2781
tp2782
Rp2783
sS'1312'
p2784
g2
(g6
S'\x0c7\xdbS~Y\x08@'
p2785
tp2786
Rp2787
sS'1344'
p2788
g2
(g6
S'\x0c7\xdbS~Y\x08@'
p2789
tp2790
Rp2791
sS'1310'
p2792
g2
(g6
S'\x0c7\xdbS~Y\x08@'
p2793
tp2794
Rp2795
sS'5144'
p2796
g2
(g6
S'\x0c7\xdbS~Y\x08@'
p2797
tp2798
Rp2799
sS'5145'
p2800
g2
(g6
S'\x0c7\xdbS~Y\x08@'
p2801
tp2802
Rp2803
sS'5142'
p2804
g2
(g6
S'\xfb\xe0\x7f\xe1\x0ft\x08@'
p2805
tp2806
Rp2807
sS'5143'
p2808
g2
(g6
S'\xfb\xe0\x7f\xe1\x0ft\x08@'
p2809
tp2810
Rp2811
sS'5140'
p2812
g2
(g6
S'\xfb\xe0\x7f\xe1\x0ft\x08@'
p2813
tp2814
Rp2815
sS'5141'
p2816
g2
(g6
S'\x0c7\xdbS~Y\x08@'
p2817
tp2818
Rp2819
sS'3401'
p2820
g2
(g6
S'\xfb\xe0\x7f\xe1\x0ft\x08@'
p2821
tp2822
Rp2823
sS'3400'
p2824
g2
(g6
S'\x0c7\xdbS~Y\x08@'
p2825
tp2826
Rp2827
sS'3403'
p2828
g2
(g6
S'\x0c7\xdbS~Y\x08@'
p2829
tp2830
Rp2831
sS'3402'
p2832
g2
(g6
S'\xfb\xe0\x7f\xe1\x0ft\x08@'
p2833
tp2834
Rp2835
sS'3405'
p2836
g2
(g6
S'\xfb\xe0\x7f\xe1\x0ft\x08@'
p2837
tp2838
Rp2839
sS'3404'
p2840
g2
(g6
S'\x0c7\xdbS~Y\x08@'
p2841
tp2842
Rp2843
sS'1402'
p2844
g2
(g6
S'\xfb\xe0\x7f\xe1\x0ft\x08@'
p2845
tp2846
Rp2847
sS'3550'
p2848
g2
(g6
S'\x0c7\xdbS~Y\x08@'
p2849
tp2850
Rp2851
sS'4235'
p2852
g2
(g6
S'\xfb\xe0\x7f\xe1\x0ft\x08@'
p2853
tp2854
Rp2855
sS'4234'
p2856
g2
(g6
S'\x0c7\xdbS~Y\x08@'
p2857
tp2858
Rp2859
sS'4233'
p2860
g2
(g6
S'\x0c7\xdbS~Y\x08@'
p2861
tp2862
Rp2863
sS'4232'
p2864
g2
(g6
S'\x0c7\xdbS~Y\x08@'
p2865
tp2866
Rp2867
sS'4231'
p2868
g2
(g6
S'\xfb\xe0\x7f\xe1\x0ft\x08@'
p2869
tp2870
Rp2871
sS'4230'
p2872
g2
(g6
S'\xfb\xe0\x7f\xe1\x0ft\x08@'
p2873
tp2874
Rp2875
sS'4041'
p2876
g2
(g6
S'\x0c7\xdbS~Y\x08@'
p2877
tp2878
Rp2879
sS'1345'
p2880
g2
(g6
S'\xfb\xe0\x7f\xe1\x0ft\x08@'
p2881
tp2882
Rp2883
sS'2215'
p2884
g2
(g6
S'\x0c7\xdbS~Y\x08@'
p2885
tp2886
Rp2887
sS'4404'
p2888
g2
(g6
S"q\xf3\xe4\x14'\x8c\x05@"
p2889
tp2890
Rp2891
sS'4405'
p2892
g2
(g6
S'\x0c7\xdbS~Y\x08@'
p2893
tp2894
Rp2895
sS'2214'
p2896
g2
(g6
S'\x0c7\xdbS~Y\x08@'
p2897
tp2898
Rp2899
sS'4400'
p2900
g2
(g6
S'U!\xf8r\xb0\x14\x07@'
p2901
tp2902
Rp2903
sS'4401'
p2904
g2
(g6
S'\x0c7\xdbS~Y\x08@'
p2905
tp2906
Rp2907
sS'4402'
p2908
g2
(g6
S'\x0c7\xdbS~Y\x08@'
p2909
tp2910
Rp2911
sS'4403'
p2912
g2
(g6
S'\x0c7\xdbS~Y\x08@'
p2913
tp2914
Rp2915
sS'2411'
p2916
g2
(g6
S'\x0c7\xdbS~Y\x08@'
p2917
tp2918
Rp2919
sS'2410'
p2920
g2
(g6
S'\xfb\xe0\x7f\xe1\x0ft\x08@'
p2921
tp2922
Rp2923
sS'2145'
p2924
g2
(g6
S'\xfb\xe0\x7f\xe1\x0ft\x08@'
p2925
tp2926
Rp2927
sS'2412'
p2928
g2
(g6
S'\x0c7\xdbS~Y\x08@'
p2929
tp2930
Rp2931
sS'2143'
p2932
g2
(g6
S'\xfb\xe0\x7f\xe1\x0ft\x08@'
p2933
tp2934
Rp2935
sS'2142'
p2936
g2
(g6
S'\x0c7\xdbS~Y\x08@'
p2937
tp2938
Rp2939
sS'2141'
p2940
g2
(g6
S'\x0c7\xdbS~Y\x08@'
p2941
tp2942
Rp2943
sS'2140'
p2944
g2
(g6
S'\xfb\xe0\x7f\xe1\x0ft\x08@'
p2945
tp2946
Rp2947
sS'1404'
p2948
g2
(g6
S'\x0c7\xdbS~Y\x08@'
p2949
tp2950
Rp2951
sS'3413'
p2952
g2
(g6
S'\x0c7\xdbS~Y\x08@'
p2953
tp2954
Rp2955
sS'5003'
p2956
g2
(g6
S'\x0c7\xdbS~Y\x08@'
p2957
tp2958
Rp2959
sS'4532'
p2960
g2
(g6
S'\xfb\xe0\x7f\xe1\x0ft\x08@'
p2961
tp2962
Rp2963
sS'5002'
p2964
g2
(g6
S'\x0c7\xdbS~Y\x08@'
p2965
tp2966
Rp2967
sS'5001'
p2968
g2
(g6
S'\x0c7\xdbS~Y\x08@'
p2969
tp2970
Rp2971
sS'5000'
p2972
g2
(g6
S"q\xf3\xe4\x14'\x8c\x05@"
p2973
tp2974
Rp2975
sS'4211'
p2976
g2
(g6
S'\x0c7\xdbS~Y\x08@'
p2977
tp2978
Rp2979
sS'3442'
p2980
g2
(g6
S'\x0c7\xdbS~Y\x08@'
p2981
tp2982
Rp2983
sS'4210'
p2984
g2
(g6
S'\xfb\xe0\x7f\xe1\x0ft\x08@'
p2985
tp2986
Rp2987
sS'0523'
p2988
g2
(g6
S'\xfb\xe0\x7f\xe1\x0ft\x08@'
p2989
tp2990
Rp2991
sS'0522'
p2992
g2
(g6
S'\x0c7\xdbS~Y\x08@'
p2993
tp2994
Rp2995
sS'0521'
p2996
g2
(g6
S'\xfb\xe0\x7f\xe1\x0ft\x08@'
p2997
tp2998
Rp2999
sS'0520'
p3000
g2
(g6
S'\x0c7\xdbS~Y\x08@'
p3001
tp3002
Rp3003
sS'5005'
p3004
g2
(g6
S'U!\xf8r\xb0\x14\x07@'
p3005
tp3006
Rp3007
sS'0525'
p3008
g2
(g6
S'\x0c7\xdbS~Y\x08@'
p3009
tp3010
Rp3011
sS'0524'
p3012
g2
(g6
S'\xfb\xe0\x7f\xe1\x0ft\x08@'
p3013
tp3014
Rp3015
sS'4123'
p3016
g2
(g6
S'\xfb\xe0\x7f\xe1\x0ft\x08@'
p3017
tp3018
Rp3019
sS'4122'
p3020
g2
(g6
S'\x0c7\xdbS~Y\x08@'
p3021
tp3022
Rp3023
sS'4121'
p3024
g2
(g6
S'\x0c7\xdbS~Y\x08@'
p3025
tp3026
Rp3027
sS'4120'
p3028
g2
(g6
S'\xfb\xe0\x7f\xe1\x0ft\x08@'
p3029
tp3030
Rp3031
sS'4133'
p3032
g2
(g6
S'\x0c7\xdbS~Y\x08@'
p3033
tp3034
Rp3035
sS'4125'
p3036
g2
(g6
S'\xfb\xe0\x7f\xe1\x0ft\x08@'
p3037
tp3038
Rp3039
sS'4124'
p3040
g2
(g6
S'\x0c7\xdbS~Y\x08@'
p3041
tp3042
Rp3043
sS'2344'
p3044
g2
(g6
S'\x0c7\xdbS~Y\x08@'
p3045
tp3046
Rp3047
sS'4353'
p3048
g2
(g6
S'\x0c7\xdbS~Y\x08@'
p3049
tp3050
Rp3051
sS'2413'
p3052
g2
(g6
S'\xfb\xe0\x7f\xe1\x0ft\x08@'
p3053
tp3054
Rp3055
sS'0512'
p3056
g2
(g6
S'\xfb\xe0\x7f\xe1\x0ft\x08@'
p3057
tp3058
Rp3059
sS'5324'
p3060
g2
(g6
S'\xfb\xe0\x7f\xe1\x0ft\x08@'
p3061
tp3062
Rp3063
sS'5325'
p3064
g2
(g6
S'\x0c7\xdbS~Y\x08@'
p3065
tp3066
Rp3067
sS'5322'
p3068
g2
(g6
S'\x0c7\xdbS~Y\x08@'
p3069
tp3070
Rp3071
sS'5323'
p3072
g2
(g6
S'\x0c7\xdbS~Y\x08@'
p3073
tp3074
Rp3075
sS'5320'
p3076
g2
(g6
S'\xfb\xe0\x7f\xe1\x0ft\x08@'
p3077
tp3078
Rp3079
sS'5321'
p3080
g2
(g6
S'\xfb\xe0\x7f\xe1\x0ft\x08@'
p3081
tp3082
Rp3083
sS'3311'
p3084
g2
(g6
S'U!\xf8r\xb0\x14\x07@'
p3085
tp3086
Rp3087
sS'3310'
p3088
g2
(g6
S'\x0c7\xdbS~Y\x08@'
p3089
tp3090
Rp3091
sS'3313'
p3092
g2
(g6
S"q\xf3\xe4\x14'\x8c\x05@"
p3093
tp3094
Rp3095
sS'3312'
p3096
g2
(g6
S'\x0c7\xdbS~Y\x08@'
p3097
tp3098
Rp3099
sS'3315'
p3100
g2
(g6
S'\x0c7\xdbS~Y\x08@'
p3101
tp3102
Rp3103
sS'3314'
p3104
g2
(g6
S'\x0c7\xdbS~Y\x08@'
p3105
tp3106
Rp3107
sS'0350'
p3108
g2
(g6
S'\x0c7\xdbS~Y\x08@'
p3109
tp3110
Rp3111
sS'0351'
p3112
g2
(g6
S'\xfb\xe0\x7f\xe1\x0ft\x08@'
p3113
tp3114
Rp3115
sS'0352'
p3116
g2
(g6
S'\xfb\xe0\x7f\xe1\x0ft\x08@'
p3117
tp3118
Rp3119
sS'0353'
p3120
g2
(g6
S'\x0c7\xdbS~Y\x08@'
p3121
tp3122
Rp3123
sS'0354'
p3124
g2
(g6
S'\xfb\xe0\x7f\xe1\x0ft\x08@'
p3125
tp3126
Rp3127
sS'0355'
p3128
g2
(g6
S'\x0c7\xdbS~Y\x08@'
p3129
tp3130
Rp3131
sS'4051'
p3132
g2
(g6
S'\xfb\xe0\x7f\xe1\x0ft\x08@'
p3133
tp3134
Rp3135
sS'4050'
p3136
g2
(g6
S'\x0c7\xdbS~Y\x08@'
p3137
tp3138
Rp3139
sS'5245'
p3140
g2
(g6
S'\x0c7\xdbS~Y\x08@'
p3141
tp3142
Rp3143
sS'5244'
p3144
g2
(g6
S'\x0c7\xdbS~Y\x08@'
p3145
tp3146
Rp3147
sS'2324'
p3148
g2
(g6
S'\x0c7\xdbS~Y\x08@'
p3149
tp3150
Rp3151
sS'5241'
p3152
g2
(g6
S'\xfb\xe0\x7f\xe1\x0ft\x08@'
p3153
tp3154
Rp3155
sS'5240'
p3156
g2
(g6
S'\xfb\xe0\x7f\xe1\x0ft\x08@'
p3157
tp3158
Rp3159
sS'5243'
p3160
g2
(g6
S'\xfb\xe0\x7f\xe1\x0ft\x08@'
p3161
tp3162
Rp3163
sS'5242'
p3164
g2
(g6
S'\x0c7\xdbS~Y\x08@'
p3165
tp3166
Rp3167
sS'1253'
p3168
g2
(g6
S'\xfb\xe0\x7f\xe1\x0ft\x08@'
p3169
tp3170
Rp3171
sS'2512'
p3172
g2
(g6
S'\x0c7\xdbS~Y\x08@'
p3173
tp3174
Rp3175
sS'0455'
p3176
g2
(g6
S'\x0c7\xdbS~Y\x08@'
p3177
tp3178
Rp3179
sS'0454'
p3180
g2
(g6
S'\x0c7\xdbS~Y\x08@'
p3181
tp3182
Rp3183
sS'0453'
p3184
g2
(g6
S'\xfb\xe0\x7f\xe1\x0ft\x08@'
p3185
tp3186
Rp3187
sS'0452'
p3188
g2
(g6
S'\xfb\xe0\x7f\xe1\x0ft\x08@'
p3189
tp3190
Rp3191
sS'0451'
p3192
g2
(g6
S'\xfb\xe0\x7f\xe1\x0ft\x08@'
p3193
tp3194
Rp3195
sS'0450'
p3196
g2
(g6
S'\x0c7\xdbS~Y\x08@'
p3197
tp3198
Rp3199
sS'2415'
p3200
g2
(g6
S'\xfb\xe0\x7f\xe1\x0ft\x08@'
p3201
tp3202
Rp3203
sS'2003'
p3204
g2
(g6
S'\x0c7\xdbS~Y\x08@'
p3205
tp3206
Rp3207
sS'3005'
p3208
g2
(g6
S'\x0c7\xdbS~Y\x08@'
p3209
tp3210
Rp3211
sS'3004'
p3212
g2
(g6
S'\x0c7\xdbS~Y\x08@'
p3213
tp3214
Rp3215
sS'0014'
p3216
g2
(g6
S'\x0c7\xdbS~Y\x08@'
p3217
tp3218
Rp3219
sS'3001'
p3220
g2
(g6
S'\x0c7\xdbS~Y\x08@'
p3221
tp3222
Rp3223
sS'3000'
p3224
g2
(g6
S"q\xf3\xe4\x14'\x8c\x05@"
p3225
tp3226
Rp3227
sS'3003'
p3228
g2
(g6
S'U!\xf8r\xb0\x14\x07@'
p3229
tp3230
Rp3231
sS'3002'
p3232
g2
(g6
S'\x0c7\xdbS~Y\x08@'
p3233
tp3234
Rp3235
sS'0132'
p3236
g2
(g6
S'\xfb\xe0\x7f\xe1\x0ft\x08@'
p3237
tp3238
Rp3239
sS'2414'
p3240
g2
(g6
S'\x0c7\xdbS~Y\x08@'
p3241
tp3242
Rp3243
sS'1421'
p3244
g2
(g6
S'\x0c7\xdbS~Y\x08@'
p3245
tp3246
Rp3247
sS'5433'
p3248
g2
(g6
S'\x0c7\xdbS~Y\x08@'
p3249
tp3250
Rp3251
sS'1423'
p3252
g2
(g6
S'\xfb\xe0\x7f\xe1\x0ft\x08@'
p3253
tp3254
Rp3255
sS'1422'
p3256
g2
(g6
S'\x0c7\xdbS~Y\x08@'
p3257
tp3258
Rp3259
sS'1425'
p3260
g2
(g6
S'\xfb\xe0\x7f\xe1\x0ft\x08@'
p3261
tp3262
Rp3263
sS'1424'
p3264
g2
(g6
S'\x0c7\xdbS~Y\x08@'
p3265
tp3266
Rp3267
sS'5434'
p3268
g2
(g6
S'\x0c7\xdbS~Y\x08@'
p3269
tp3270
Rp3271
sS'5435'
p3272
g2
(g6
S'\x0c7\xdbS~Y\x08@'
p3273
tp3274
Rp3275
sS'4451'
p3276
g2
(g6
S'\x0c7\xdbS~Y\x08@'
p3277
tp3278
Rp3279
sS'2340'
p3280
g2
(g6
S'\xfb\xe0\x7f\xe1\x0ft\x08@'
p3281
tp3282
Rp3283
sS'1205'
p3284
g2
(g6
S'\xfb\xe0\x7f\xe1\x0ft\x08@'
p3285
tp3286
Rp3287
sS'2432'
p3288
g2
(g6
S'\x0c7\xdbS~Y\x08@'
p3289
tp3290
Rp3291
sS'0133'
p3292
g2
(g6
S'\x0c7\xdbS~Y\x08@'
p3293
tp3294
Rp3295
sS'1033'
p3296
g2
(g6
S'\x0c7\xdbS~Y\x08@'
p3297
tp3298
Rp3299
sS'1030'
p3300
g2
(g6
S'\x0c7\xdbS~Y\x08@'
p3301
tp3302
Rp3303
sS'1031'
p3304
g2
(g6
S'\x0c7\xdbS~Y\x08@'
p3305
tp3306
Rp3307
sS'2431'
p3308
g2
(g6
S'\xfb\xe0\x7f\xe1\x0ft\x08@'
p3309
tp3310
Rp3311
sS'1034'
p3312
g2
(g6
S'\xfb\xe0\x7f\xe1\x0ft\x08@'
p3313
tp3314
Rp3315
sS'2403'
p3316
g2
(g6
S'\xfb\xe0\x7f\xe1\x0ft\x08@'
p3317
tp3318
Rp3319
sS'0004'
p3320
g2
(g6
S"q\xf3\xe4\x14'\x8c\x05@"
p3321
tp3322
Rp3323
sS'1213'
p3324
g2
(g6
S'\x0c7\xdbS~Y\x08@'
p3325
tp3326
Rp3327
sS'1210'
p3328
g2
(g6
S'\x0c7\xdbS~Y\x08@'
p3329
tp3330
Rp3331
sS'1211'
p3332
g2
(g6
S"q\xf3\xe4\x14'\x8c\x05@"
p3333
tp3334
Rp3335
sS'0000'
p3336
g2
(g6
S'\x1aM\xf5\x0e\x97\xf9\xf7?'
p3337
tp3338
Rp3339
sS'2400'
p3340
g2
(g6
S'\x0c7\xdbS~Y\x08@'
p3341
tp3342
Rp3343
sS'0002'
p3344
g2
(g6
S"q\xf3\xe4\x14'\x8c\x05@"
p3345
tp3346
Rp3347
sS'1215'
p3348
g2
(g6
S'\x0c7\xdbS~Y\x08@'
p3349
tp3350
Rp3351
sS'5021'
p3352
g2
(g6
S'\xfb\xe0\x7f\xe1\x0ft\x08@'
p3353
tp3354
Rp3355
sS'5020'
p3356
g2
(g6
S'\x0c7\xdbS~Y\x08@'
p3357
tp3358
Rp3359
sS'1351'
p3360
g2
(g6
S'\x0c7\xdbS~Y\x08@'
p3361
tp3362
Rp3363
sS'5022'
p3364
g2
(g6
S'\x0c7\xdbS~Y\x08@'
p3365
tp3366
Rp3367
sS'2424'
p3368
g2
(g6
S'U!\xf8r\xb0\x14\x07@'
p3369
tp3370
Rp3371
sS'4055'
p3372
g2
(g6
S'\x0c7\xdbS~Y\x08@'
p3373
tp3374
Rp3375
sS'1355'
p3376
g2
(g6
S'\x0c7\xdbS~Y\x08@'
p3377
tp3378
Rp3379
sS'1354'
p3380
g2
(g6
S'\xfb\xe0\x7f\xe1\x0ft\x08@'
p3381
tp3382
Rp3383
sS'4440'
p3384
g2
(g6
S"q\xf3\xe4\x14'\x8c\x05@"
p3385
tp3386
Rp3387
sS'4441'
p3388
g2
(g6
S"q\xf3\xe4\x14'\x8c\x05@"
p3389
tp3390
Rp3391
sS'4442'
p3392
g2
(g6
S"q\xf3\xe4\x14'\x8c\x05@"
p3393
tp3394
Rp3395
sS'4054'
p3396
g2
(g6
S'\x0c7\xdbS~Y\x08@'
p3397
tp3398
Rp3399
sS'4444'
p3400
g2
(g6
S'\x1aM\xf5\x0e\x97\xf9\xf7?'
p3401
tp3402
Rp3403
sS'5550'
p3404
g2
(g6
S"q\xf3\xe4\x14'\x8c\x05@"
p3405
tp3406
Rp3407
sS'5553'
p3408
g2
(g6
S"q\xf3\xe4\x14'\x8c\x05@"
p3409
tp3410
Rp3411
sS'5552'
p3412
g2
(g6
S"q\xf3\xe4\x14'\x8c\x05@"
p3413
tp3414
Rp3415
sS'0513'
p3416
g2
(g6
S'\xfb\xe0\x7f\xe1\x0ft\x08@'
p3417
tp3418
Rp3419
sS'4053'
p3420
g2
(g6
S'\xfb\xe0\x7f\xe1\x0ft\x08@'
p3421
tp3422
Rp3423
sS'4241'
p3424
g2
(g6
S'\x0c7\xdbS~Y\x08@'
p3425
tp3426
Rp3427
sS'5023'
p3428
g2
(g6
S'\xfb\xe0\x7f\xe1\x0ft\x08@'
p3429
tp3430
Rp3431
sS'0305'
p3432
g2
(g6
S'\x0c7\xdbS~Y\x08@'
p3433
tp3434
Rp3435
sS'4052'
p3436
g2
(g6
S'\xfb\xe0\x7f\xe1\x0ft\x08@'
p3437
tp3438
Rp3439
sS'4453'
p3440
g2
(g6
S'\x0c7\xdbS~Y\x08@'
p3441
tp3442
Rp3443
sS'4045'
p3444
g2
(g6
S'\x0c7\xdbS~Y\x08@'
p3445
tp3446
Rp3447
sS'4452'
p3448
g2
(g6
S'\x0c7\xdbS~Y\x08@'
p3449
tp3450
Rp3451
sS'3224'
p3452
g2
(g6
S'\x0c7\xdbS~Y\x08@'
p3453
tp3454
Rp3455
sS'4525'
p3456
g2
(g6
S'\x0c7\xdbS~Y\x08@'
p3457
tp3458
Rp3459
sS'4524'
p3460
g2
(g6
S'\x0c7\xdbS~Y\x08@'
p3461
tp3462
Rp3463
sS'4523'
p3464
g2
(g6
S'\xfb\xe0\x7f\xe1\x0ft\x08@'
p3465
tp3466
Rp3467
sS'4522'
p3468
g2
(g6
S'\x0c7\xdbS~Y\x08@'
p3469
tp3470
Rp3471
sS'4521'
p3472
g2
(g6
S'\xfb\xe0\x7f\xe1\x0ft\x08@'
p3473
tp3474
Rp3475
sS'4520'
p3476
g2
(g6
S'\xfb\xe0\x7f\xe1\x0ft\x08@'
p3477
tp3478
Rp3479
sS'1454'
p3480
g2
(g6
S'\x0c7\xdbS~Y\x08@'
p3481
tp3482
Rp3483
sS'1455'
p3484
g2
(g6
S'\x0c7\xdbS~Y\x08@'
p3485
tp3486
Rp3487
sS'1104'
p3488
g2
(g6
S'\x0c7\xdbS~Y\x08@'
p3489
tp3490
Rp3491
sS'1105'
p3492
g2
(g6
S'\x0c7\xdbS~Y\x08@'
p3493
tp3494
Rp3495
sS'1450'
p3496
g2
(g6
S'\xfb\xe0\x7f\xe1\x0ft\x08@'
p3497
tp3498
Rp3499
sS'1451'
p3500
g2
(g6
S'\x0c7\xdbS~Y\x08@'
p3501
tp3502
Rp3503
sS'1452'
p3504
g2
(g6
S'\xfb\xe0\x7f\xe1\x0ft\x08@'
p3505
tp3506
Rp3507
sS'1453'
p3508
g2
(g6
S'\xfb\xe0\x7f\xe1\x0ft\x08@'
p3509
tp3510
Rp3511
sS'2103'
p3512
g2
(g6
S'\xfb\xe0\x7f\xe1\x0ft\x08@'
p3513
tp3514
Rp3515
sS'2102'
p3516
g2
(g6
S'\x0c7\xdbS~Y\x08@'
p3517
tp3518
Rp3519
sS'2101'
p3520
g2
(g6
S'\x0c7\xdbS~Y\x08@'
p3521
tp3522
Rp3523
sS'2100'
p3524
g2
(g6
S'\x0c7\xdbS~Y\x08@'
p3525
tp3526
Rp3527
sS'2510'
p3528
g2
(g6
S'\xfb\xe0\x7f\xe1\x0ft\x08@'
p3529
tp3530
Rp3531
sS'2511'
p3532
g2
(g6
S'\x0c7\xdbS~Y\x08@'
p3533
tp3534
Rp3535
sS'2105'
p3536
g2
(g6
S'\xfb\xe0\x7f\xe1\x0ft\x08@'
p3537
tp3538
Rp3539
sS'2104'
p3540
g2
(g6
S'\xfb\xe0\x7f\xe1\x0ft\x08@'
p3541
tp3542
Rp3543
sS'5115'
p3544
g2
(g6
S'U!\xf8r\xb0\x14\x07@'
p3545
tp3546
Rp3547
sS'5114'
p3548
g2
(g6
S'\x0c7\xdbS~Y\x08@'
p3549
tp3550
Rp3551
sS'4421'
p3552
g2
(g6
S'\x0c7\xdbS~Y\x08@'
p3553
tp3554
Rp3555
sS'5111'
p3556
g2
(g6
S"q\xf3\xe4\x14'\x8c\x05@"
p3557
tp3558
Rp3559
sS'5110'
p3560
g2
(g6
S'\x0c7\xdbS~Y\x08@'
p3561
tp3562
Rp3563
sS'5113'
p3564
g2
(g6
S'\x0c7\xdbS~Y\x08@'
p3565
tp3566
Rp3567
sS'5112'
p3568
g2
(g6
S'\x0c7\xdbS~Y\x08@'
p3569
tp3570
Rp3571
sS'2430'
p3572
g2
(g6
S'\xfb\xe0\x7f\xe1\x0ft\x08@'
p3573
tp3574
Rp3575
sS'3531'
p3576
g2
(g6
S'\x0c7\xdbS~Y\x08@'
p3577
tp3578
Rp3579
sS'3530'
p3580
g2
(g6
S'\x0c7\xdbS~Y\x08@'
p3581
tp3582
Rp3583
sS'3533'
p3584
g2
(g6
S"q\xf3\xe4\x14'\x8c\x05@"
p3585
tp3586
Rp3587
sS'3532'
p3588
g2
(g6
S'\x0c7\xdbS~Y\x08@'
p3589
tp3590
Rp3591
sS'3535'
p3592
g2
(g6
S'U!\xf8r\xb0\x14\x07@'
p3593
tp3594
Rp3595
sS'3534'
p3596
g2
(g6
S'\x0c7\xdbS~Y\x08@'
p3597
tp3598
Rp3599
sS'0231'
p3600
g2
(g6
S'\xfb\xe0\x7f\xe1\x0ft\x08@'
p3601
tp3602
Rp3603
sS'5054'
p3604
g2
(g6
S'\x0c7\xdbS~Y\x08@'
p3605
tp3606
Rp3607
sS'5055'
p3608
g2
(g6
S"q\xf3\xe4\x14'\x8c\x05@"
p3609
tp3610
Rp3611
sS'4425'
p3612
g2
(g6
S'\x0c7\xdbS~Y\x08@'
p3613
tp3614
Rp3615
sS'5050'
p3616
g2
(g6
S'U!\xf8r\xb0\x14\x07@'
p3617
tp3618
Rp3619
sS'5051'
p3620
g2
(g6
S'\x0c7\xdbS~Y\x08@'
p3621
tp3622
Rp3623
sS'5052'
p3624
g2
(g6
S'\x0c7\xdbS~Y\x08@'
p3625
tp3626
Rp3627
sS'5053'
p3628
g2
(g6
S'\x0c7\xdbS~Y\x08@'
p3629
tp3630
Rp3631
sS'4240'
p3632
g2
(g6
S'\x0c7\xdbS~Y\x08@'
p3633
tp3634
Rp3635
sS'3430'
p3636
g2
(g6
S'\x0c7\xdbS~Y\x08@'
p3637
tp3638
Rp3639
sS'5545'
p3640
g2
(g6
S"q\xf3\xe4\x14'\x8c\x05@"
p3641
tp3642
Rp3643
sS'3432'
p3644
g2
(g6
S'\x0c7\xdbS~Y\x08@'
p3645
tp3646
Rp3647
sS'3433'
p3648
g2
(g6
S"q\xf3\xe4\x14'\x8c\x05@"
p3649
tp3650
Rp3651
sS'3434'
p3652
g2
(g6
S'U!\xf8r\xb0\x14\x07@'
p3653
tp3654
Rp3655
sS'3435'
p3656
g2
(g6
S'\x0c7\xdbS~Y\x08@'
p3657
tp3658
Rp3659
sS'0040'
p3660
g2
(g6
S"q\xf3\xe4\x14'\x8c\x05@"
p3661
tp3662
Rp3663
sS'2035'
p3664
g2
(g6
S'\xfb\xe0\x7f\xe1\x0ft\x08@'
p3665
tp3666
Rp3667
sS'2034'
p3668
g2
(g6
S'\xfb\xe0\x7f\xe1\x0ft\x08@'
p3669
tp3670
Rp3671
sS'2033'
p3672
g2
(g6
S'\x0c7\xdbS~Y\x08@'
p3673
tp3674
Rp3675
sS'2032'
p3676
g2
(g6
S'\x0c7\xdbS~Y\x08@'
p3677
tp3678
Rp3679
sS'2031'
p3680
g2
(g6
S'\xfb\xe0\x7f\xe1\x0ft\x08@'
p3681
tp3682
Rp3683
sS'2030'
p3684
g2
(g6
S'\x0c7\xdbS~Y\x08@'
p3685
tp3686
Rp3687
sS'1533'
p3688
g2
(g6
S'\x0c7\xdbS~Y\x08@'
p3689
tp3690
Rp3691
sS'0042'
p3692
g2
(g6
S'\x0c7\xdbS~Y\x08@'
p3693
tp3694
Rp3695
sS'1532'
p3696
g2
(g6
S'\xfb\xe0\x7f\xe1\x0ft\x08@'
p3697
tp3698
Rp3699
sS'3232'
p3700
g2
(g6
S'U!\xf8r\xb0\x14\x07@'
p3701
tp3702
Rp3703
sS'1431'
p3704
g2
(g6
S'\x0c7\xdbS~Y\x08@'
p3705
tp3706
Rp3707
sS'0043'
p3708
g2
(g6
S'\x0c7\xdbS~Y\x08@'
p3709
tp3710
Rp3711
sS'3233'
p3712
g2
(g6
S"q\xf3\xe4\x14'\x8c\x05@"
p3713
tp3714
Rp3715
sS'0044'
p3716
g2
(g6
S'U!\xf8r\xb0\x14\x07@'
p3717
tp3718
Rp3719
sS'3230'
p3720
g2
(g6
S'\x0c7\xdbS~Y\x08@'
p3721
tp3722
Rp3723
sS'0045'
p3724
g2
(g6
S'\x0c7\xdbS~Y\x08@'
p3725
tp3726
Rp3727
sS'5201'
p3728
g2
(g6
S'\xfb\xe0\x7f\xe1\x0ft\x08@'
p3729
tp3730
Rp3731
sS'5401'
p3732
g2
(g6
S'\xfb\xe0\x7f\xe1\x0ft\x08@'
p3733
tp3734
Rp3735
sS'5203'
p3736
g2
(g6
S'\xfb\xe0\x7f\xe1\x0ft\x08@'
p3737
tp3738
Rp3739
sS'5202'
p3740
g2
(g6
S'\x0c7\xdbS~Y\x08@'
p3741
tp3742
Rp3743
sS'5205'
p3744
g2
(g6
S'\x0c7\xdbS~Y\x08@'
p3745
tp3746
Rp3747
sS'5204'
p3748
g2
(g6
S'\xfb\xe0\x7f\xe1\x0ft\x08@'
p3749
tp3750
Rp3751
sS'4135'
p3752
g2
(g6
S'\xfb\xe0\x7f\xe1\x0ft\x08@'
p3753
tp3754
Rp3755
sS'1152'
p3756
g2
(g6
S'\x0c7\xdbS~Y\x08@'
p3757
tp3758
Rp3759
sS'3544'
p3760
g2
(g6
S'\x0c7\xdbS~Y\x08@'
p3761
tp3762
Rp3763
sS'3545'
p3764
g2
(g6
S'\x0c7\xdbS~Y\x08@'
p3765
tp3766
Rp3767
sS'4150'
p3768
g2
(g6
S'\xfb\xe0\x7f\xe1\x0ft\x08@'
p3769
tp3770
Rp3771
sS'0410'
p3772
g2
(g6
S'\x0c7\xdbS~Y\x08@'
p3773
tp3774
Rp3775
sS'3540'
p3776
g2
(g6
S'\xfb\xe0\x7f\xe1\x0ft\x08@'
p3777
tp3778
Rp3779
sS'3541'
p3780
g2
(g6
S'\xfb\xe0\x7f\xe1\x0ft\x08@'
p3781
tp3782
Rp3783
sS'3542'
p3784
g2
(g6
S'\xfb\xe0\x7f\xe1\x0ft\x08@'
p3785
tp3786
Rp3787
sS'3543'
p3788
g2
(g6
S'\x0c7\xdbS~Y\x08@'
p3789
tp3790
Rp3791
sS'3225'
p3792
g2
(g6
S'\x0c7\xdbS~Y\x08@'
p3793
tp3794
Rp3795
sS'4012'
p3796
g2
(g6
S'\xfb\xe0\x7f\xe1\x0ft\x08@'
p3797
tp3798
Rp3799
sS'4011'
p3800
g2
(g6
S'\x0c7\xdbS~Y\x08@'
p3801
tp3802
Rp3803
sS'4010'
p3804
g2
(g6
S'\x0c7\xdbS~Y\x08@'
p3805
tp3806
Rp3807
sS'3221'
p3808
g2
(g6
S'\x0c7\xdbS~Y\x08@'
p3809
tp3810
Rp3811
sS'3220'
p3812
g2
(g6
S'\x0c7\xdbS~Y\x08@'
p3813
tp3814
Rp3815
sS'4015'
p3816
g2
(g6
S'\xfb\xe0\x7f\xe1\x0ft\x08@'
p3817
tp3818
Rp3819
sS'4014'
p3820
g2
(g6
S'\x0c7\xdbS~Y\x08@'
p3821
tp3822
Rp3823
sS'2401'
p3824
g2
(g6
S'\xfb\xe0\x7f\xe1\x0ft\x08@'
p3825
tp3826
Rp3827
sS'1555'
p3828
g2
(g6
S"q\xf3\xe4\x14'\x8c\x05@"
p3829
tp3830
Rp3831
sS'1515'
p3832
g2
(g6
S'U!\xf8r\xb0\x14\x07@'
p3833
tp3834
Rp3835
sS'3105'
p3836
g2
(g6
S'\xfb\xe0\x7f\xe1\x0ft\x08@'
p3837
tp3838
Rp3839
sS'0552'
p3840
g2
(g6
S'\x0c7\xdbS~Y\x08@'
p3841
tp3842
Rp3843
sS'0553'
p3844
g2
(g6
S'\x0c7\xdbS~Y\x08@'
p3845
tp3846
Rp3847
sS'0550'
p3848
g2
(g6
S'U!\xf8r\xb0\x14\x07@'
p3849
tp3850
Rp3851
sS'0551'
p3852
g2
(g6
S'\x0c7\xdbS~Y\x08@'
p3853
tp3854
Rp3855
sS'0554'
p3856
g2
(g6
S'\x0c7\xdbS~Y\x08@'
p3857
tp3858
Rp3859
sS'0555'
p3860
g2
(g6
S"q\xf3\xe4\x14'\x8c\x05@"
p3861
tp3862
Rp3863
sS'2421'
p3864
g2
(g6
S'\x0c7\xdbS~Y\x08@'
p3865
tp3866
Rp3867
sS'0233'
p3868
g2
(g6
S'\x0c7\xdbS~Y\x08@'
p3869
tp3870
Rp3871
sS'1102'
p3872
g2
(g6
S'\x0c7\xdbS~Y\x08@'
p3873
tp3874
Rp3875
sS'4151'
p3876
g2
(g6
S'\x0c7\xdbS~Y\x08@'
p3877
tp3878
Rp3879
sS'0230'
p3880
g2
(g6
S'\x0c7\xdbS~Y\x08@'
p3881
tp3882
Rp3883
sS'5043'
p3884
g2
(g6
S'\xfb\xe0\x7f\xe1\x0ft\x08@'
p3885
tp3886
Rp3887
sS'5200'
p3888
g2
(g6
S'\x0c7\xdbS~Y\x08@'
p3889
tp3890
Rp3891
sS'0235'
p3892
g2
(g6
S'\xfb\xe0\x7f\xe1\x0ft\x08@'
p3893
tp3894
Rp3895
sS'0234'
p3896
g2
(g6
S'\xfb\xe0\x7f\xe1\x0ft\x08@'
p3897
tp3898
Rp3899
sS'3320'
p3900
g2
(g6
S'\x0c7\xdbS~Y\x08@'
p3901
tp3902
Rp3903
sS'3321'
p3904
g2
(g6
S'\x0c7\xdbS~Y\x08@'
p3905
tp3906
Rp3907
sS'3322'
p3908
g2
(g6
S'U!\xf8r\xb0\x14\x07@'
p3909
tp3910
Rp3911
sS'3323'
p3912
g2
(g6
S"q\xf3\xe4\x14'\x8c\x05@"
p3913
tp3914
Rp3915
sS'3324'
p3916
g2
(g6
S'\x0c7\xdbS~Y\x08@'
p3917
tp3918
Rp3919
sS'3325'
p3920
g2
(g6
S'\x0c7\xdbS~Y\x08@'
p3921
tp3922
Rp3923
sS'3041'
p3924
g2
(g6
S'\xfb\xe0\x7f\xe1\x0ft\x08@'
p3925
tp3926
Rp3927
sS'3040'
p3928
g2
(g6
S'\x0c7\xdbS~Y\x08@'
p3929
tp3930
Rp3931
sS'3043'
p3932
g2
(g6
S'\x0c7\xdbS~Y\x08@'
p3933
tp3934
Rp3935
sS'3042'
p3936
g2
(g6
S'\xfb\xe0\x7f\xe1\x0ft\x08@'
p3937
tp3938
Rp3939
sS'3045'
p3940
g2
(g6
S'\xfb\xe0\x7f\xe1\x0ft\x08@'
p3941
tp3942
Rp3943
sS'3044'
p3944
g2
(g6
S'\x0c7\xdbS~Y\x08@'
p3945
tp3946
Rp3947
sS'2323'
p3948
g2
(g6
S'U!\xf8r\xb0\x14\x07@'
p3949
tp3950
Rp3951
sS'2322'
p3952
g2
(g6
S"q\xf3\xe4\x14'\x8c\x05@"
p3953
tp3954
Rp3955
sS'2321'
p3956
g2
(g6
S'\x0c7\xdbS~Y\x08@'
p3957
tp3958
Rp3959
sS'2320'
p3960
g2
(g6
S'\x0c7\xdbS~Y\x08@'
p3961
tp3962
Rp3963
sS'2325'
p3964
g2
(g6
S'\x0c7\xdbS~Y\x08@'
p3965
tp3966
Rp3967
sS'1103'
p3968
g2
(g6
S'\x0c7\xdbS~Y\x08@'
p3969
tp3970
Rp3971
sS'1535'
p3972
g2
(g6
S'\x0c7\xdbS~Y\x08@'
p3973
tp3974
Rp3975
sS'1113'
p3976
g2
(g6
S"q\xf3\xe4\x14'\x8c\x05@"
p3977
tp3978
Rp3979
sS'4140'
p3980
g2
(g6
S'\x0c7\xdbS~Y\x08@'
p3981
tp3982
Rp3983
sS'1112'
p3984
g2
(g6
S"q\xf3\xe4\x14'\x8c\x05@"
p3985
tp3986
Rp3987
sS'1115'
p3988
g2
(g6
S"q\xf3\xe4\x14'\x8c\x05@"
p3989
tp3990
Rp3991
sS'1120'
p3992
g2
(g6
S'\x0c7\xdbS~Y\x08@'
p3993
tp3994
Rp3995
sS'0304'
p3996
g2
(g6
S'\x0c7\xdbS~Y\x08@'
p3997
tp3998
Rp3999
sS'0303'
p4000
g2
(g6
S'U!\xf8r\xb0\x14\x07@'
p4001
tp4002
Rp4003
sS'0302'
p4004
g2
(g6
S'\x0c7\xdbS~Y\x08@'
p4005
tp4006
Rp4007
sS'0301'
p4008
g2
(g6
S'\x0c7\xdbS~Y\x08@'
p4009
tp4010
Rp4011
sS'0300'
p4012
g2
(g6
S"q\xf3\xe4\x14'\x8c\x05@"
p4013
tp4014
Rp4015
sS'1551'
p4016
g2
(g6
S'U!\xf8r\xb0\x14\x07@'
p4017
tp4018
Rp4019
sS'0125'
p4020
g2
(g6
S'\xfb\xe0\x7f\xe1\x0ft\x08@'
p4021
tp4022
Rp4023
sS'0124'
p4024
g2
(g6
S'\xfb\xe0\x7f\xe1\x0ft\x08@'
p4025
tp4026
Rp4027
sS'0123'
p4028
g2
(g6
S'\xfb\xe0\x7f\xe1\x0ft\x08@'
p4029
tp4030
Rp4031
sS'1100'
p4032
g2
(g6
S'U!\xf8r\xb0\x14\x07@'
p4033
tp4034
Rp4035
sS'0121'
p4036
g2
(g6
S'\x0c7\xdbS~Y\x08@'
p4037
tp4038
Rp4039
sS'1534'
p4040
g2
(g6
S'\xfb\xe0\x7f\xe1\x0ft\x08@'
p4041
tp4042
Rp4043
sS'1155'
p4044
g2
(g6
S'U!\xf8r\xb0\x14\x07@'
p4045
tp4046
Rp4047
sS'1154'
p4048
g2
(g6
S'\x0c7\xdbS~Y\x08@'
p4049
tp4050
Rp4051
sS'4334'
p4052
g2
(g6
S'U!\xf8r\xb0\x14\x07@'
p4053
tp4054
Rp4055
sS'4335'
p4056
g2
(g6
S'\x0c7\xdbS~Y\x08@'
p4057
tp4058
Rp4059
sS'1151'
p4060
g2
(g6
S"q\xf3\xe4\x14'\x8c\x05@"
p4061
tp4062
Rp4063
sS'1150'
p4064
g2
(g6
S'\x0c7\xdbS~Y\x08@'
p4065
tp4066
Rp4067
sS'4330'
p4068
g2
(g6
S'\x0c7\xdbS~Y\x08@'
p4069
tp4070
Rp4071
sS'4331'
p4072
g2
(g6
S'\x0c7\xdbS~Y\x08@'
p4073
tp4074
Rp4075
sS'3135'
p4076
g2
(g6
S'\x0c7\xdbS~Y\x08@'
p4077
tp4078
Rp4079
sS'3134'
p4080
g2
(g6
S'\x0c7\xdbS~Y\x08@'
p4081
tp4082
Rp4083
sS'1552'
p4084
g2
(g6
S'\x0c7\xdbS~Y\x08@'
p4085
tp4086
Rp4087
sS'3131'
p4088
g2
(g6
S'U!\xf8r\xb0\x14\x07@'
p4089
tp4090
Rp4091
sS'3130'
p4092
g2
(g6
S'\x0c7\xdbS~Y\x08@'
p4093
tp4094
Rp4095
sS'3133'
p4096
g2
(g6
S"q\xf3\xe4\x14'\x8c\x05@"
p4097
tp4098
Rp4099
sS'3132'
p4100
g2
(g6
S'\x0c7\xdbS~Y\x08@'
p4101
tp4102
Rp4103
sS'5511'
p4104
g2
(g6
S'U!\xf8r\xb0\x14\x07@'
p4105
tp4106
Rp4107
sS'5510'
p4108
g2
(g6
S'\x0c7\xdbS~Y\x08@'
p4109
tp4110
Rp4111
sS'5513'
p4112
g2
(g6
S'\x0c7\xdbS~Y\x08@'
p4113
tp4114
Rp4115
sS'1403'
p4116
g2
(g6
S'\xfb\xe0\x7f\xe1\x0ft\x08@'
p4117
tp4118
Rp4119
sS'5515'
p4120
g2
(g6
S"q\xf3\xe4\x14'\x8c\x05@"
p4121
tp4122
Rp4123
sS'5514'
p4124
g2
(g6
S'\x0c7\xdbS~Y\x08@'
p4125
tp4126
Rp4127
sS'1554'
p4128
g2
(g6
S'\x0c7\xdbS~Y\x08@'
p4129
tp4130
Rp4131
sS'2550'
p4132
g2
(g6
S'\x0c7\xdbS~Y\x08@'
p4133
tp4134
Rp4135
sS'1550'
p4136
g2
(g6
S'\x0c7\xdbS~Y\x08@'
p4137
tp4138
Rp4139
sS'1553'
p4140
g2
(g6
S'\x0c7\xdbS~Y\x08@'
p4141
tp4142
Rp4143
sS'2553'
p4144
g2
(g6
S'\x0c7\xdbS~Y\x08@'
p4145
tp4146
Rp4147
sS'2554'
p4148
g2
(g6
S'\x0c7\xdbS~Y\x08@'
p4149
tp4150
Rp4151
sS'2555'
p4152
g2
(g6
S"q\xf3\xe4\x14'\x8c\x05@"
p4153
tp4154
Rp4155
sS'3034'
p4156
g2
(g6
S'\x0c7\xdbS~Y\x08@'
p4157
tp4158
Rp4159
sS'0415'
p4160
g2
(g6
S'\xfb\xe0\x7f\xe1\x0ft\x08@'
p4161
tp4162
Rp4163
sS'3030'
p4164
g2
(g6
S'U!\xf8r\xb0\x14\x07@'
p4165
tp4166
Rp4167
sS'3031'
p4168
g2
(g6
S'\x0c7\xdbS~Y\x08@'
p4169
tp4170
Rp4171
sS'3032'
p4172
g2
(g6
S'\x0c7\xdbS~Y\x08@'
p4173
tp4174
Rp4175
sS'3033'
p4176
g2
(g6
S"q\xf3\xe4\x14'\x8c\x05@"
p4177
tp4178
Rp4179
sS'3243'
p4180
g2
(g6
S'\x0c7\xdbS~Y\x08@'
p4181
tp4182
Rp4183
sS'4130'
p4184
g2
(g6
S'\xfb\xe0\x7f\xe1\x0ft\x08@'
p4185
tp4186
Rp4187
sS'1110'
p4188
g2
(g6
S"q\xf3\xe4\x14'\x8c\x05@"
p4189
tp4190
Rp4191
sS'3035'
p4192
g2
(g6
S'\x0c7\xdbS~Y\x08@'
p4193
tp4194
Rp4195
sS'1410'
p4196
g2
(g6
S'\x0c7\xdbS~Y\x08@'
p4197
tp4198
Rp4199
sS'1411'
p4200
g2
(g6
S"q\xf3\xe4\x14'\x8c\x05@"
p4201
tp4202
Rp4203
sS'1412'
p4204
g2
(g6
S'\x0c7\xdbS~Y\x08@'
p4205
tp4206
Rp4207
sS'1413'
p4208
g2
(g6
S'\x0c7\xdbS~Y\x08@'
p4209
tp4210
Rp4211
sS'1414'
p4212
g2
(g6
S'U!\xf8r\xb0\x14\x07@'
p4213
tp4214
Rp4215
sS'3241'
p4216
g2
(g6
S'\xfb\xe0\x7f\xe1\x0ft\x08@'
p4217
tp4218
Rp4219
sS'2251'
p4220
g2
(g6
S'\x0c7\xdbS~Y\x08@'
p4221
tp4222
Rp4223
sS'2250'
p4224
g2
(g6
S'\x0c7\xdbS~Y\x08@'
p4225
tp4226
Rp4227
sS'4321'
p4228
g2
(g6
S'\xfb\xe0\x7f\xe1\x0ft\x08@'
p4229
tp4230
Rp4231
sS'3431'
p4232
g2
(g6
S'\x0c7\xdbS~Y\x08@'
p4233
tp4234
Rp4235
sS'1320'
p4236
g2
(g6
S'\xfb\xe0\x7f\xe1\x0ft\x08@'
p4237
tp4238
Rp4239
sS'3240'
p4240
g2
(g6
S'\xfb\xe0\x7f\xe1\x0ft\x08@'
p4241
tp4242
Rp4243
sS'5014'
p4244
g2
(g6
S'\xfb\xe0\x7f\xe1\x0ft\x08@'
p4245
tp4246
Rp4247
sS'5015'
p4248
g2
(g6
S'\x0c7\xdbS~Y\x08@'
p4249
tp4250
Rp4251
sS'1324'
p4252
g2
(g6
S'\xfb\xe0\x7f\xe1\x0ft\x08@'
p4253
tp4254
Rp4255
sS'1325'
p4256
g2
(g6
S'\xfb\xe0\x7f\xe1\x0ft\x08@'
p4257
tp4258
Rp4259
sS'5151'
p4260
g2
(g6
S'U!\xf8r\xb0\x14\x07@'
p4261
tp4262
Rp4263
sS'4134'
p4264
g2
(g6
S'\x0c7\xdbS~Y\x08@'
p4265
tp4266
Rp4267
sS'5153'
p4268
g2
(g6
S'\x0c7\xdbS~Y\x08@'
p4269
tp4270
Rp4271
sS'1514'
p4272
g2
(g6
S'\x0c7\xdbS~Y\x08@'
p4273
tp4274
Rp4275
sS'5155'
p4276
g2
(g6
S"q\xf3\xe4\x14'\x8c\x05@"
p4277
tp4278
Rp4279
sS'5154'
p4280
g2
(g6
S'\x0c7\xdbS~Y\x08@'
p4281
tp4282
Rp4283
sS'5355'
p4284
g2
(g6
S"q\xf3\xe4\x14'\x8c\x05@"
p4285
tp4286
Rp4287
sS'4202'
p4288
g2
(g6
S'\x0c7\xdbS~Y\x08@'
p4289
tp4290
Rp4291
sS'4203'
p4292
g2
(g6
S'\xfb\xe0\x7f\xe1\x0ft\x08@'
p4293
tp4294
Rp4295
sS'4200'
p4296
g2
(g6
S'\x0c7\xdbS~Y\x08@'
p4297
tp4298
Rp4299
sS'4201'
p4300
g2
(g6
S'\xfb\xe0\x7f\xe1\x0ft\x08@'
p4301
tp4302
Rp4303
sS'4204'
p4304
g2
(g6
S'\x0c7\xdbS~Y\x08@'
p4305
tp4306
Rp4307
sS'4205'
p4308
g2
(g6
S'\xfb\xe0\x7f\xe1\x0ft\x08@'
p4309
tp4310
Rp4311
sS'4332'
p4312
g2
(g6
S'\x0c7\xdbS~Y\x08@'
p4313
tp4314
Rp4315
sS'5542'
p4316
g2
(g6
S'\x0c7\xdbS~Y\x08@'
p4317
tp4318
Rp4319
sS'5134'
p4320
g2
(g6
S'\xfb\xe0\x7f\xe1\x0ft\x08@'
p4321
tp4322
Rp4323
sS'5500'
p4324
g2
(g6
S'U!\xf8r\xb0\x14\x07@'
p4325
tp4326
Rp4327
sS'4414'
p4328
g2
(g6
S"q\xf3\xe4\x14'\x8c\x05@"
p4329
tp4330
Rp4331
sS'4413'
p4332
g2
(g6
S'\x0c7\xdbS~Y\x08@'
p4333
tp4334
Rp4335
sS'4412'
p4336
g2
(g6
S'\x0c7\xdbS~Y\x08@'
p4337
tp4338
Rp4339
sS'4411'
p4340
g2
(g6
S'U!\xf8r\xb0\x14\x07@'
p4341
tp4342
Rp4343
sS'4410'
p4344
g2
(g6
S'\x0c7\xdbS~Y\x08@'
p4345
tp4346
Rp4347
sS'4304'
p4348
g2
(g6
S'\x0c7\xdbS~Y\x08@'
p4349
tp4350
Rp4351
sS'1525'
p4352
g2
(g6
S'\x0c7\xdbS~Y\x08@'
p4353
tp4354
Rp4355
sS'1254'
p4356
g2
(g6
S'\xfb\xe0\x7f\xe1\x0ft\x08@'
p4357
tp4358
Rp4359
sS'1255'
p4360
g2
(g6
S'\x0c7\xdbS~Y\x08@'
p4361
tp4362
Rp4363
sS'1520'
p4364
g2
(g6
S'\xfb\xe0\x7f\xe1\x0ft\x08@'
p4365
tp4366
Rp4367
sS'1521'
p4368
g2
(g6
S'\x0c7\xdbS~Y\x08@'
p4369
tp4370
Rp4371
sS'1522'
p4372
g2
(g6
S'\x0c7\xdbS~Y\x08@'
p4373
tp4374
Rp4375
sS'1523'
p4376
g2
(g6
S'\xfb\xe0\x7f\xe1\x0ft\x08@'
p4377
tp4378
Rp4379
sS'4355'
p4380
g2
(g6
S'\x0c7\xdbS~Y\x08@'
p4381
tp4382
Rp4383
sS'4333'
p4384
g2
(g6
S"q\xf3\xe4\x14'\x8c\x05@"
p4385
tp4386
Rp4387
sS'2200'
p4388
g2
(g6
S'U!\xf8r\xb0\x14\x07@'
p4389
tp4390
Rp4391
sS'4143'
p4392
g2
(g6
S'\x0c7\xdbS~Y\x08@'
p4393
tp4394
Rp4395
sS'1420'
p4396
g2
(g6
S'\xfb\xe0\x7f\xe1\x0ft\x08@'
p4397
tp4398
Rp4399
sS'5353'
p4400
g2
(g6
S'U!\xf8r\xb0\x14\x07@'
p4401
tp4402
Rp4403
sS'2202'
p4404
g2
(g6
S"q\xf3\xe4\x14'\x8c\x05@"
p4405
tp4406
Rp4407
sS'1144'
p4408
g2
(g6
S'U!\xf8r\xb0\x14\x07@'
p4409
tp4410
Rp4411
sS'4114'
p4412
g2
(g6
S'U!\xf8r\xb0\x14\x07@'
p4413
tp4414
Rp4415
sS'4115'
p4416
g2
(g6
S'\x0c7\xdbS~Y\x08@'
p4417
tp4418
Rp4419
sS'4112'
p4420
g2
(g6
S'\x0c7\xdbS~Y\x08@'
p4421
tp4422
Rp4423
sS'4113'
p4424
g2
(g6
S'\x0c7\xdbS~Y\x08@'
p4425
tp4426
Rp4427
sS'4110'
p4428
g2
(g6
S'\x0c7\xdbS~Y\x08@'
p4429
tp4430
Rp4431
sS'4111'
p4432
g2
(g6
S"q\xf3\xe4\x14'\x8c\x05@"
p4433
tp4434
Rp4435
sS'5124'
p4436
g2
(g6
S'\xfb\xe0\x7f\xe1\x0ft\x08@'
p4437
tp4438
Rp4439
sS'5125'
p4440
g2
(g6
S'\x0c7\xdbS~Y\x08@'
p4441
tp4442
Rp4443
sS'5120'
p4444
g2
(g6
S'\xfb\xe0\x7f\xe1\x0ft\x08@'
p4445
tp4446
Rp4447
sS'5121'
p4448
g2
(g6
S'\x0c7\xdbS~Y\x08@'
p4449
tp4450
Rp4451
sS'5122'
p4452
g2
(g6
S'\x0c7\xdbS~Y\x08@'
p4453
tp4454
Rp4455
sS'5123'
p4456
g2
(g6
S'\xfb\xe0\x7f\xe1\x0ft\x08@'
p4457
tp4458
Rp4459
sS'5451'
p4460
g2
(g6
S'\x0c7\xdbS~Y\x08@'
p4461
tp4462
Rp4463
sS'2254'
p4464
g2
(g6
S'\x0c7\xdbS~Y\x08@'
p4465
tp4466
Rp4467
sS'3500'
p4468
g2
(g6
S'\x0c7\xdbS~Y\x08@'
p4469
tp4470
Rp4471
sS'3501'
p4472
g2
(g6
S'\xfb\xe0\x7f\xe1\x0ft\x08@'
p4473
tp4474
Rp4475
sS'3502'
p4476
g2
(g6
S'\xfb\xe0\x7f\xe1\x0ft\x08@'
p4477
tp4478
Rp4479
sS'3503'
p4480
g2
(g6
S'\x0c7\xdbS~Y\x08@'
p4481
tp4482
Rp4483
sS'3504'
p4484
g2
(g6
S'\xfb\xe0\x7f\xe1\x0ft\x08@'
p4485
tp4486
Rp4487
sS'3505'
p4488
g2
(g6
S'\x0c7\xdbS~Y\x08@'
p4489
tp4490
Rp4491
sS'0510'
p4492
g2
(g6
S'\x0c7\xdbS~Y\x08@'
p4493
tp4494
Rp4495
sS'2252'
p4496
g2
(g6
S"q\xf3\xe4\x14'\x8c\x05@"
p4497
tp4498
Rp4499
sS'3513'
p4500
g2
(g6
S'\x0c7\xdbS~Y\x08@'
p4501
tp4502
Rp4503
sS'3512'
p4504
g2
(g6
S'\xfb\xe0\x7f\xe1\x0ft\x08@'
p4505
tp4506
Rp4507
sS'3511'
p4508
g2
(g6
S'\x0c7\xdbS~Y\x08@'
p4509
tp4510
Rp4511
sS'2345'
p4512
g2
(g6
S'\xfb\xe0\x7f\xe1\x0ft\x08@'
p4513
tp4514
Rp4515
sS'5452'
p4516
g2
(g6
S'\x0c7\xdbS~Y\x08@'
p4517
tp4518
Rp4519
sS'1322'
p4520
g2
(g6
S'\x0c7\xdbS~Y\x08@'
p4521
tp4522
Rp4523
sS'3510'
p4524
g2
(g6
S'\xfb\xe0\x7f\xe1\x0ft\x08@'
p4525
tp4526
Rp4527
sS'1323'
p4528
g2
(g6
S'\x0c7\xdbS~Y\x08@'
p4529
tp4530
Rp4531
sS'4144'
p4532
g2
(g6
S"q\xf3\xe4\x14'\x8c\x05@"
p4533
tp4534
Rp4535
sS'5012'
p4536
g2
(g6
S'\xfb\xe0\x7f\xe1\x0ft\x08@'
p4537
tp4538
Rp4539
sS'1405'
p4540
g2
(g6
S'\xfb\xe0\x7f\xe1\x0ft\x08@'
p4541
tp4542
Rp4543
sS'5331'
p4544
g2
(g6
S'\x0c7\xdbS~Y\x08@'
p4545
tp4546
Rp4547
sS'5330'
p4548
g2
(g6
S'\x0c7\xdbS~Y\x08@'
p4549
tp4550
Rp4551
sS'5333'
p4552
g2
(g6
S"q\xf3\xe4\x14'\x8c\x05@"
p4553
tp4554
Rp4555
sS'5332'
p4556
g2
(g6
S'\x0c7\xdbS~Y\x08@'
p4557
tp4558
Rp4559
sS'5335'
p4560
g2
(g6
S'U!\xf8r\xb0\x14\x07@'
p4561
tp4562
Rp4563
sS'5334'
p4564
g2
(g6
S'\x0c7\xdbS~Y\x08@'
p4565
tp4566
Rp4567
sS'3223'
p4568
g2
(g6
S'U!\xf8r\xb0\x14\x07@'
p4569
tp4570
Rp4571
sS'5453'
p4572
g2
(g6
S'\x0c7\xdbS~Y\x08@'
p4573
tp4574
Rp4575
sS'3214'
p4576
g2
(g6
S'\xfb\xe0\x7f\xe1\x0ft\x08@'
p4577
tp4578
Rp4579
sS'3215'
p4580
g2
(g6
S'\xfb\xe0\x7f\xe1\x0ft\x08@'
p4581
tp4582
Rp4583
sS'0341'
p4584
g2
(g6
S'\xfb\xe0\x7f\xe1\x0ft\x08@'
p4585
tp4586
Rp4587
sS'0340'
p4588
g2
(g6
S'\x0c7\xdbS~Y\x08@'
p4589
tp4590
Rp4591
sS'3210'
p4592
g2
(g6
S'\xfb\xe0\x7f\xe1\x0ft\x08@'
p4593
tp4594
Rp4595
sS'3211'
p4596
g2
(g6
S'\x0c7\xdbS~Y\x08@'
p4597
tp4598
Rp4599
sS'3212'
p4600
g2
(g6
S'\x0c7\xdbS~Y\x08@'
p4601
tp4602
Rp4603
sS'3213'
p4604
g2
(g6
S'\x0c7\xdbS~Y\x08@'
p4605
tp4606
Rp4607
sS'5230'
p4608
g2
(g6
S'\xfb\xe0\x7f\xe1\x0ft\x08@'
p4609
tp4610
Rp4611
sS'5231'
p4612
g2
(g6
S'\xfb\xe0\x7f\xe1\x0ft\x08@'
p4613
tp4614
Rp4615
sS'5232'
p4616
g2
(g6
S'\x0c7\xdbS~Y\x08@'
p4617
tp4618
Rp4619
sS'5233'
p4620
g2
(g6
S'\x0c7\xdbS~Y\x08@'
p4621
tp4622
Rp4623
sS'5234'
p4624
g2
(g6
S'\xfb\xe0\x7f\xe1\x0ft\x08@'
p4625
tp4626
Rp4627
sS'5235'
p4628
g2
(g6
S'\x0c7\xdbS~Y\x08@'
p4629
tp4630
Rp4631
sS'3551'
p4632
g2
(g6
S'\x0c7\xdbS~Y\x08@'
p4633
tp4634
Rp4635
sS'5150'
p4636
g2
(g6
S'\x0c7\xdbS~Y\x08@'
p4637
tp4638
Rp4639
sS'1204'
p4640
g2
(g6
S'\xfb\xe0\x7f\xe1\x0ft\x08@'
p4641
tp4642
Rp4643
sS'4155'
p4644
g2
(g6
S'\x0c7\xdbS~Y\x08@'
p4645
tp4646
Rp4647
sS'1043'
p4648
g2
(g6
S'\xfb\xe0\x7f\xe1\x0ft\x08@'
p4649
tp4650
Rp4651
sS'0240'
p4652
g2
(g6
S'\x0c7\xdbS~Y\x08@'
p4653
tp4654
Rp4655
sS'5152'
p4656
g2
(g6
S'\x0c7\xdbS~Y\x08@'
p4657
tp4658
Rp4659
sS'0244'
p4660
g2
(g6
S'\x0c7\xdbS~Y\x08@'
p4661
tp4662
Rp4663
sS'1042'
p4664
g2
(g6
S'\xfb\xe0\x7f\xe1\x0ft\x08@'
p4665
tp4666
Rp4667
sS'5350'
p4668
g2
(g6
S'\x0c7\xdbS~Y\x08@'
p4669
tp4670
Rp4671
sS'2332'
p4672
g2
(g6
S'U!\xf8r\xb0\x14\x07@'
p4673
tp4674
Rp4675
sS'1032'
p4676
g2
(g6
S'\xfb\xe0\x7f\xe1\x0ft\x08@'
p4677
tp4678
Rp4679
sS'2333'
p4680
g2
(g6
S"q\xf3\xe4\x14'\x8c\x05@"
p4681
tp4682
Rp4683
sS'5255'
p4684
g2
(g6
S"q\xf3\xe4\x14'\x8c\x05@"
p4685
tp4686
Rp4687
sS'5455'
p4688
g2
(g6
S"q\xf3\xe4\x14'\x8c\x05@"
p4689
tp4690
Rp4691
sS'4044'
p4692
g2
(g6
S"q\xf3\xe4\x14'\x8c\x05@"
p4693
tp4694
Rp4695
sS'4213'
p4696
g2
(g6
S'\xfb\xe0\x7f\xe1\x0ft\x08@'
p4697
tp4698
Rp4699
sS'2213'
p4700
g2
(g6
S'\x0c7\xdbS~Y\x08@'
p4701
tp4702
Rp4703
sS'5345'
p4704
g2
(g6
S'\x0c7\xdbS~Y\x08@'
p4705
tp4706
Rp4707
sS'2211'
p4708
g2
(g6
S'U!\xf8r\xb0\x14\x07@'
p4709
tp4710
Rp4711
sS'2210'
p4712
g2
(g6
S'\x0c7\xdbS~Y\x08@'
p4713
tp4714
Rp4715
sS'5340'
p4716
g2
(g6
S'\xfb\xe0\x7f\xe1\x0ft\x08@'
p4717
tp4718
Rp4719
sS'5341'
p4720
g2
(g6
S'\xfb\xe0\x7f\xe1\x0ft\x08@'
p4721
tp4722
Rp4723
sS'5342'
p4724
g2
(g6
S'\xfb\xe0\x7f\xe1\x0ft\x08@'
p4725
tp4726
Rp4727
sS'5343'
p4728
g2
(g6
S'\x0c7\xdbS~Y\x08@'
p4729
tp4730
Rp4731
sS'5425'
p4732
g2
(g6
S'\x0c7\xdbS~Y\x08@'
p4733
tp4734
Rp4735
sS'5424'
p4736
g2
(g6
S'\x0c7\xdbS~Y\x08@'
p4737
tp4738
Rp4739
sS'3421'
p4740
g2
(g6
S'\xfb\xe0\x7f\xe1\x0ft\x08@'
p4741
tp4742
Rp4743
sS'5421'
p4744
g2
(g6
S'\xfb\xe0\x7f\xe1\x0ft\x08@'
p4745
tp4746
Rp4747
sS'5420'
p4748
g2
(g6
S'\xfb\xe0\x7f\xe1\x0ft\x08@'
p4749
tp4750
Rp4751
sS'5423'
p4752
g2
(g6
S'\xfb\xe0\x7f\xe1\x0ft\x08@'
p4753
tp4754
Rp4755
sS'5422'
p4756
g2
(g6
S'\x0c7\xdbS~Y\x08@'
p4757
tp4758
Rp4759
sS'5443'
p4760
g2
(g6
S'\x0c7\xdbS~Y\x08@'
p4761
tp4762
Rp4763
sS'4450'
p4764
g2
(g6
S'\x0c7\xdbS~Y\x08@'
p4765
tp4766
Rp4767
sS'5431'
p4768
g2
(g6
S'\xfb\xe0\x7f\xe1\x0ft\x08@'
p4769
tp4770
Rp4771
sS'5442'
p4772
g2
(g6
S'\x0c7\xdbS~Y\x08@'
p4773
tp4774
Rp4775
sS'2352'
p4776
g2
(g6
S'\x0c7\xdbS~Y\x08@'
p4777
tp4778
Rp4779
sS'2353'
p4780
g2
(g6
S'\x0c7\xdbS~Y\x08@'
p4781
tp4782
Rp4783
sS'2350'
p4784
g2
(g6
S'\xfb\xe0\x7f\xe1\x0ft\x08@'
p4785
tp4786
Rp4787
sS'1035'
p4788
g2
(g6
S'\xfb\xe0\x7f\xe1\x0ft\x08@'
p4789
tp4790
Rp4791
sS'5441'
p4792
g2
(g6
S'\x0c7\xdbS~Y\x08@'
p4793
tp4794
Rp4795
sS'2354'
p4796
g2
(g6
S'\xfb\xe0\x7f\xe1\x0ft\x08@'
p4797
tp4798
Rp4799
sS'2355'
p4800
g2
(g6
S'\x0c7\xdbS~Y\x08@'
p4801
tp4802
Rp4803
sS'1212'
p4804
g2
(g6
S'U!\xf8r\xb0\x14\x07@'
p4805
tp4806
Rp4807
sS'0015'
p4808
g2
(g6
S'\x0c7\xdbS~Y\x08@'
p4809
tp4810
Rp4811
sS'5440'
p4812
g2
(g6
S'\x0c7\xdbS~Y\x08@'
p4813
tp4814
Rp4815
sS'0013'
p4816
g2
(g6
S'\x0c7\xdbS~Y\x08@'
p4817
tp4818
Rp4819
sS'0012'
p4820
g2
(g6
S'\x0c7\xdbS~Y\x08@'
p4821
tp4822
Rp4823
sS'0011'
p4824
g2
(g6
S'U!\xf8r\xb0\x14\x07@'
p4825
tp4826
Rp4827
sS'0010'
p4828
g2
(g6
S"q\xf3\xe4\x14'\x8c\x05@"
p4829
tp4830
Rp4831
sS'2433'
p4832
g2
(g6
S'\x0c7\xdbS~Y\x08@'
p4833
tp4834
Rp4835
sS'2235'
p4836
g2
(g6
S'\x0c7\xdbS~Y\x08@'
p4837
tp4838
Rp4839
sS'4244'
p4840
g2
(g6
S"q\xf3\xe4\x14'\x8c\x05@"
p4841
tp4842
Rp4843
sS'4245'
p4844
g2
(g6
S'\x0c7\xdbS~Y\x08@'
p4845
tp4846
Rp4847
sS'4242'
p4848
g2
(g6
S'U!\xf8r\xb0\x14\x07@'
p4849
tp4850
Rp4851
sS'4243'
p4852
g2
(g6
S'\x0c7\xdbS~Y\x08@'
p4853
tp4854
Rp4855
sS'2435'
p4856
g2
(g6
S'\xfb\xe0\x7f\xe1\x0ft\x08@'
p4857
tp4858
Rp4859
sS'2434'
p4860
g2
(g6
S'\x0c7\xdbS~Y\x08@'
p4861
tp4862
Rp4863
sS'5520'
p4864
g2
(g6
S'\x0c7\xdbS~Y\x08@'
p4865
tp4866
Rp4867
sS'5521'
p4868
g2
(g6
S'\x0c7\xdbS~Y\x08@'
p4869
tp4870
Rp4871
sS'5522'
p4872
g2
(g6
S'U!\xf8r\xb0\x14\x07@'
p4873
tp4874
Rp4875
sS'5523'
p4876
g2
(g6
S'\x0c7\xdbS~Y\x08@'
p4877
tp4878
Rp4879
sS'5524'
p4880
g2
(g6
S'\x0c7\xdbS~Y\x08@'
p4881
tp4882
Rp4883
sS'5525'
p4884
g2
(g6
S"q\xf3\xe4\x14'\x8c\x05@"
p4885
tp4886
Rp4887
sS'4455'
p4888
g2
(g6
S'U!\xf8r\xb0\x14\x07@'
p4889
tp4890
Rp4891
sS'4454'
p4892
g2
(g6
S"q\xf3\xe4\x14'\x8c\x05@"
p4893
tp4894
Rp4895
sS'5430'
p4896
g2
(g6
S'\xfb\xe0\x7f\xe1\x0ft\x08@'
p4897
tp4898
Rp4899
sS'0001'
p4900
g2
(g6
S"q\xf3\xe4\x14'\x8c\x05@"
p4901
tp4902
Rp4903
sS'2420'
p4904
g2
(g6
S'\x0c7\xdbS~Y\x08@'
p4905
tp4906
Rp4907
sS'5432'
p4908
g2
(g6
S'\xfb\xe0\x7f\xe1\x0ft\x08@'
p4909
tp4910
Rp4911
sS'2134'
p4912
g2
(g6
S'\xfb\xe0\x7f\xe1\x0ft\x08@'
p4913
tp4914
Rp4915
sS'2135'
p4916
g2
(g6
S'\xfb\xe0\x7f\xe1\x0ft\x08@'
p4917
tp4918
Rp4919
sS'2132'
p4920
g2
(g6
S'\x0c7\xdbS~Y\x08@'
p4921
tp4922
Rp4923
sS'2133'
p4924
g2
(g6
S'\x0c7\xdbS~Y\x08@'
p4925
tp4926
Rp4927
sS'4303'
p4928
g2
(g6
S'\x0c7\xdbS~Y\x08@'
p4929
tp4930
Rp4931
sS'2131'
p4932
g2
(g6
S'\x0c7\xdbS~Y\x08@'
p4933
tp4934
Rp4935
sS'4512'
p4936
g2
(g6
S'\xfb\xe0\x7f\xe1\x0ft\x08@'
p4937
tp4938
Rp4939
sS'4513'
p4940
g2
(g6
S'\xfb\xe0\x7f\xe1\x0ft\x08@'
p4941
tp4942
Rp4943
sS'4510'
p4944
g2
(g6
S'\xfb\xe0\x7f\xe1\x0ft\x08@'
p4945
tp4946
Rp4947
sS'4511'
p4948
g2
(g6
S'\x0c7\xdbS~Y\x08@'
p4949
tp4950
Rp4951
sS'3100'
p4952
g2
(g6
S'\x0c7\xdbS~Y\x08@'
p4953
tp4954
Rp4955
sS'3101'
p4956
g2
(g6
S'\x0c7\xdbS~Y\x08@'
p4957
tp4958
Rp4959
sS'4514'
p4960
g2
(g6
S'\x0c7\xdbS~Y\x08@'
p4961
tp4962
Rp4963
sS'3103'
p4964
g2
(g6
S'\x0c7\xdbS~Y\x08@'
p4965
tp4966
Rp4967
sS'1111'
p4968
g2
(g6
S'\x1aM\xf5\x0e\x97\xf9\xf7?'
p4969
tp4970
Rp4971
sS'1353'
p4972
g2
(g6
S'\x0c7\xdbS~Y\x08@'
p4973
tp4974
Rp4975
sS'1445'
p4976
g2
(g6
S'\x0c7\xdbS~Y\x08@'
p4977
tp4978
Rp4979
sS'1444'
p4980
g2
(g6
S"q\xf3\xe4\x14'\x8c\x05@"
p4981
tp4982
Rp4983
sS'1443'
p4984
g2
(g6
S'\x0c7\xdbS~Y\x08@'
p4985
tp4986
Rp4987
sS'1114'
p4988
g2
(g6
S"q\xf3\xe4\x14'\x8c\x05@"
p4989
tp4990
Rp4991
sS'1441'
p4992
g2
(g6
S'U!\xf8r\xb0\x14\x07@'
p4993
tp4994
Rp4995
sS'1352'
p4996
g2
(g6
S'\xfb\xe0\x7f\xe1\x0ft\x08@'
p4997
tp4998
Rp4999
sS'1442'
p5000
g2
(g6
S'\x0c7\xdbS~Y\x08@'
p5001
tp5002
Rp5003
sS'2505'
p5004
g2
(g6
S'\x0c7\xdbS~Y\x08@'
p5005
tp5006
Rp5007
sS'2504'
p5008
g2
(g6
S'\xfb\xe0\x7f\xe1\x0ft\x08@'
p5009
tp5010
Rp5011
sS'2503'
p5012
g2
(g6
S'\xfb\xe0\x7f\xe1\x0ft\x08@'
p5013
tp5014
Rp5015
sS'2502'
p5016
g2
(g6
S'\x0c7\xdbS~Y\x08@'
p5017
tp5018
Rp5019
sS'2501'
p5020
g2
(g6
S'\xfb\xe0\x7f\xe1\x0ft\x08@'
p5021
tp5022
Rp5023
sS'2500'
p5024
g2
(g6
S'\x0c7\xdbS~Y\x08@'
p5025
tp5026
Rp5027
sS'5252'
p5028
g2
(g6
S'U!\xf8r\xb0\x14\x07@'
p5029
tp5030
Rp5031
sS'1350'
p5032
g2
(g6
S'\xfb\xe0\x7f\xe1\x0ft\x08@'
p5033
tp5034
Rp5035
sS'4302'
p5036
g2
(g6
S'\xfb\xe0\x7f\xe1\x0ft\x08@'
p5037
tp5038
Rp5039
sS'4515'
p5040
g2
(g6
S'\x0c7\xdbS~Y\x08@'
p5041
tp5042
Rp5043
sS'5253'
p5044
g2
(g6
S'\x0c7\xdbS~Y\x08@'
p5045
tp5046
Rp5047
sS'5025'
p5048
g2
(g6
S'\x0c7\xdbS~Y\x08@'
p5049
tp5050
Rp5051
sS'5034'
p5052
g2
(g6
S'\xfb\xe0\x7f\xe1\x0ft\x08@'
p5053
tp5054
Rp5055
sS'2005'
p5056
g2
(g6
S'\x0c7\xdbS~Y\x08@'
p5057
tp5058
Rp5059
sS'5530'
p5060
g2
(g6
S'\x0c7\xdbS~Y\x08@'
p5061
tp5062
Rp5063
sS'2425'
p5064
g2
(g6
S'\x0c7\xdbS~Y\x08@'
p5065
tp5066
Rp5067
sS'4013'
p5068
g2
(g6
S'\xfb\xe0\x7f\xe1\x0ft\x08@'
p5069
tp5070
Rp5071
sS'2551'
p5072
g2
(g6
S'\x0c7\xdbS~Y\x08@'
p5073
tp5074
Rp5075
sS'4040'
p5076
g2
(g6
S'U!\xf8r\xb0\x14\x07@'
p5077
tp5078
Rp5079
sS'5045'
p5080
g2
(g6
S'\x0c7\xdbS~Y\x08@'
p5081
tp5082
Rp5083
sS'5044'
p5084
g2
(g6
S'\x0c7\xdbS~Y\x08@'
p5085
tp5086
Rp5087
sS'2422'
p5088
g2
(g6
S"q\xf3\xe4\x14'\x8c\x05@"
p5089
tp5090
Rp5091
sS'5042'
p5092
g2
(g6
S'\xfb\xe0\x7f\xe1\x0ft\x08@'
p5093
tp5094
Rp5095
sS'5041'
p5096
g2
(g6
S'\xfb\xe0\x7f\xe1\x0ft\x08@'
p5097
tp5098
Rp5099
sS'5040'
p5100
g2
(g6
S'\x0c7\xdbS~Y\x08@'
p5101
tp5102
Rp5103
sS'5555'
p5104
g2
(g6
S'\x1aM\xf5\x0e\x97\xf9\xf7?'
p5105
tp5106
Rp5107
sS'0344'
p5108
g2
(g6
S'\x0c7\xdbS~Y\x08@'
p5109
tp5110
Rp5111
sS'0323'
p5112
g2
(g6
S'\x0c7\xdbS~Y\x08@'
p5113
tp5114
Rp5115
sS'5554'
p5116
g2
(g6
S"q\xf3\xe4\x14'\x8c\x05@"
p5117
tp5118
Rp5119
sS'5035'
p5120
g2
(g6
S'\x0c7\xdbS~Y\x08@'
p5121
tp5122
Rp5123
sS'3422'
p5124
g2
(g6
S'\x0c7\xdbS~Y\x08@'
p5125
tp5126
Rp5127
sS'1201'
p5128
g2
(g6
S'\x0c7\xdbS~Y\x08@'
p5129
tp5130
Rp5131
sS'4043'
p5132
g2
(g6
S'\x0c7\xdbS~Y\x08@'
p5133
tp5134
Rp5135
sS'3425'
p5136
g2
(g6
S'\xfb\xe0\x7f\xe1\x0ft\x08@'
p5137
tp5138
Rp5139
sS'3424'
p5140
g2
(g6
S'\x0c7\xdbS~Y\x08@'
p5141
tp5142
Rp5143
sS'2002'
p5144
g2
(g6
S'U!\xf8r\xb0\x14\x07@'
p5145
tp5146
Rp5147
sS'5313'
p5148
g2
(g6
S'\x0c7\xdbS~Y\x08@'
p5149
tp5150
Rp5151
sS'2000'
p5152
g2
(g6
S"q\xf3\xe4\x14'\x8c\x05@"
p5153
tp5154
Rp5155
sS'4443'
p5156
g2
(g6
S"q\xf3\xe4\x14'\x8c\x05@"
p5157
tp5158
Rp5159
sS'1440'
p5160
g2
(g6
S'\x0c7\xdbS~Y\x08@'
p5161
tp5162
Rp5163
sS'2004'
p5164
g2
(g6
S'\x0c7\xdbS~Y\x08@'
p5165
tp5166
Rp5167
sS'5312'
p5168
g2
(g6
S'\xfb\xe0\x7f\xe1\x0ft\x08@'
p5169
tp5170
Rp5171
sS'0003'
p5172
g2
(g6
S"q\xf3\xe4\x14'\x8c\x05@"
p5173
tp5174
Rp5175
sS'5551'
p5176
g2
(g6
S"q\xf3\xe4\x14'\x8c\x05@"
p5177
tp5178
Rp5179
sS'2423'
p5180
g2
(g6
S'\x0c7\xdbS~Y\x08@'
p5181
tp5182
Rp5183
sS'4415'
p5184
g2
(g6
S'\x0c7\xdbS~Y\x08@'
p5185
tp5186
Rp5187
sS'4445'
p5188
g2
(g6
S"q\xf3\xe4\x14'\x8c\x05@"
p5189
tp5190
Rp5191
s.