(dp0
S'0021'
p1
cnumpy.core.multiarray
scalar
p2
(cnumpy
dtype
p3
(S'f8'
p4
I0
I1
tp5
Rp6
(I3
S'<'
p7
NNNI-1
I-1
I0
tp8
bS'h\xbd\x9f\xa3\x01\\\xf9?'
p9
tp10
Rp11
sS'1021'
p12
g2
(g6
S'h\xbd\x9f\xa3\x01\\\xf9?'
p13
tp14
Rp15
sS'4051'
p16
g2
(g6
S'|%\xea\xf1\xadb\xed?'
p17
tp18
Rp19
s.